
CV01.elf:     file format elf32-littlearm

Sections:
Idx Name          Size      VMA       LMA       File off  Algn
  0 .isr_vector   000000c0  08000000  08000000  00001000  2**0
                  CONTENTS, ALLOC, LOAD, READONLY, DATA
  1 .text         00000e74  080000c0  080000c0  000010c0  2**2
                  CONTENTS, ALLOC, LOAD, READONLY, CODE
  2 .rodata       00000018  08000f34  08000f34  00001f34  2**2
                  CONTENTS, ALLOC, LOAD, READONLY, DATA
  3 .ARM.extab    00000000  08000f4c  08000f4c  00002004  2**0
                  CONTENTS
  4 .ARM          00000000  08000f4c  08000f4c  00002004  2**0
                  CONTENTS
  5 .preinit_array 00000000  08000f4c  08000f4c  00002004  2**0
                  CONTENTS, ALLOC, LOAD, DATA
  6 .init_array   00000004  08000f4c  08000f4c  00001f4c  2**2
                  CONTENTS, ALLOC, LOAD, READONLY, DATA
  7 .fini_array   00000004  08000f50  08000f50  00001f50  2**2
                  CONTENTS, ALLOC, LOAD, READONLY, DATA
  8 .data         00000004  20000000  08000f54  00002000  2**2
                  CONTENTS, ALLOC, LOAD, DATA
  9 .bss          0000001c  20000004  08000f58  00002004  2**2
                  ALLOC
 10 ._user_heap_stack 00000600  20000020  08000f58  00002020  2**0
                  ALLOC
 11 .ARM.attributes 00000028  00000000  00000000  00002004  2**0
                  CONTENTS, READONLY
 12 .debug_info   00002eff  00000000  00000000  0000202c  2**0
                  CONTENTS, READONLY, DEBUGGING, OCTETS
 13 .debug_abbrev 00000ec0  00000000  00000000  00004f2b  2**0
                  CONTENTS, READONLY, DEBUGGING, OCTETS
 14 .debug_loclists 000001da  00000000  00000000  00005deb  2**0
                  CONTENTS, READONLY, DEBUGGING, OCTETS
 15 .debug_aranges 00000408  00000000  00000000  00005fc8  2**3
                  CONTENTS, READONLY, DEBUGGING, OCTETS
 16 .debug_rnglists 000002e6  00000000  00000000  000063d0  2**0
                  CONTENTS, READONLY, DEBUGGING, OCTETS
 17 .debug_macro  0000ac1e  00000000  00000000  000066b6  2**0
                  CONTENTS, READONLY, DEBUGGING, OCTETS
 18 .debug_line   00003d73  00000000  00000000  000112d4  2**0
                  CONTENTS, READONLY, DEBUGGING, OCTETS
 19 .debug_str    00034311  00000000  00000000  00015047  2**0
                  CONTENTS, READONLY, DEBUGGING, OCTETS
 20 .comment      00000043  00000000  00000000  00049358  2**0
                  CONTENTS, READONLY
 21 .debug_frame  00000cdc  00000000  00000000  0004939c  2**2
                  CONTENTS, READONLY, DEBUGGING, OCTETS
 22 .debug_line_str 00000046  00000000  00000000  0004a078  2**0
                  CONTENTS, READONLY, DEBUGGING, OCTETS

Disassembly of section .text:

080000c0 <__do_global_dtors_aux>:
 80000c0:	b510      	push	{r4, lr}
 80000c2:	4c06      	ldr	r4, [pc, #24]	@ (80000dc <__do_global_dtors_aux+0x1c>)
 80000c4:	7823      	ldrb	r3, [r4, #0]
 80000c6:	2b00      	cmp	r3, #0
 80000c8:	d107      	bne.n	80000da <__do_global_dtors_aux+0x1a>
 80000ca:	4b05      	ldr	r3, [pc, #20]	@ (80000e0 <__do_global_dtors_aux+0x20>)
 80000cc:	2b00      	cmp	r3, #0
 80000ce:	d002      	beq.n	80000d6 <__do_global_dtors_aux+0x16>
 80000d0:	4804      	ldr	r0, [pc, #16]	@ (80000e4 <__do_global_dtors_aux+0x24>)
 80000d2:	e000      	b.n	80000d6 <__do_global_dtors_aux+0x16>
 80000d4:	bf00      	nop
 80000d6:	2301      	movs	r3, #1
 80000d8:	7023      	strb	r3, [r4, #0]
 80000da:	bd10      	pop	{r4, pc}
 80000dc:	20000004 	.word	0x20000004
 80000e0:	00000000 	.word	0x00000000
 80000e4:	08000f1c 	.word	0x08000f1c

080000e8 <frame_dummy>:
 80000e8:	4b04      	ldr	r3, [pc, #16]	@ (80000fc <frame_dummy+0x14>)
 80000ea:	b510      	push	{r4, lr}
 80000ec:	2b00      	cmp	r3, #0
 80000ee:	d003      	beq.n	80000f8 <frame_dummy+0x10>
 80000f0:	4903      	ldr	r1, [pc, #12]	@ (8000100 <frame_dummy+0x18>)
 80000f2:	4804      	ldr	r0, [pc, #16]	@ (8000104 <frame_dummy+0x1c>)
 80000f4:	e000      	b.n	80000f8 <frame_dummy+0x10>
 80000f6:	bf00      	nop
 80000f8:	bd10      	pop	{r4, pc}
 80000fa:	46c0      	nop			@ (mov r8, r8)
 80000fc:	00000000 	.word	0x00000000
 8000100:	20000008 	.word	0x20000008
 8000104:	08000f1c 	.word	0x08000f1c

08000108 <__udivsi3>:
 8000108:	2200      	movs	r2, #0
 800010a:	0843      	lsrs	r3, r0, #1
 800010c:	428b      	cmp	r3, r1
 800010e:	d374      	bcc.n	80001fa <__udivsi3+0xf2>
 8000110:	0903      	lsrs	r3, r0, #4
 8000112:	428b      	cmp	r3, r1
 8000114:	d35f      	bcc.n	80001d6 <__udivsi3+0xce>
 8000116:	0a03      	lsrs	r3, r0, #8
 8000118:	428b      	cmp	r3, r1
 800011a:	d344      	bcc.n	80001a6 <__udivsi3+0x9e>
 800011c:	0b03      	lsrs	r3, r0, #12
 800011e:	428b      	cmp	r3, r1
 8000120:	d328      	bcc.n	8000174 <__udivsi3+0x6c>
 8000122:	0c03      	lsrs	r3, r0, #16
 8000124:	428b      	cmp	r3, r1
 8000126:	d30d      	bcc.n	8000144 <__udivsi3+0x3c>
 8000128:	22ff      	movs	r2, #255	@ 0xff
 800012a:	0209      	lsls	r1, r1, #8
 800012c:	ba12      	rev	r2, r2
 800012e:	0c03      	lsrs	r3, r0, #16
 8000130:	428b      	cmp	r3, r1
 8000132:	d302      	bcc.n	800013a <__udivsi3+0x32>
 8000134:	1212      	asrs	r2, r2, #8
 8000136:	0209      	lsls	r1, r1, #8
 8000138:	d065      	beq.n	8000206 <__udivsi3+0xfe>
 800013a:	0b03      	lsrs	r3, r0, #12
 800013c:	428b      	cmp	r3, r1
 800013e:	d319      	bcc.n	8000174 <__udivsi3+0x6c>
 8000140:	e000      	b.n	8000144 <__udivsi3+0x3c>
 8000142:	0a09      	lsrs	r1, r1, #8
 8000144:	0bc3      	lsrs	r3, r0, #15
 8000146:	428b      	cmp	r3, r1
 8000148:	d301      	bcc.n	800014e <__udivsi3+0x46>
 800014a:	03cb      	lsls	r3, r1, #15
 800014c:	1ac0      	subs	r0, r0, r3
 800014e:	4152      	adcs	r2, r2
 8000150:	0b83      	lsrs	r3, r0, #14
 8000152:	428b      	cmp	r3, r1
 8000154:	d301      	bcc.n	800015a <__udivsi3+0x52>
 8000156:	038b      	lsls	r3, r1, #14
 8000158:	1ac0      	subs	r0, r0, r3
 800015a:	4152      	adcs	r2, r2
 800015c:	0b43      	lsrs	r3, r0, #13
 800015e:	428b      	cmp	r3, r1
 8000160:	d301      	bcc.n	8000166 <__udivsi3+0x5e>
 8000162:	034b      	lsls	r3, r1, #13
 8000164:	1ac0      	subs	r0, r0, r3
 8000166:	4152      	adcs	r2, r2
 8000168:	0b03      	lsrs	r3, r0, #12
 800016a:	428b      	cmp	r3, r1
 800016c:	d301      	bcc.n	8000172 <__udivsi3+0x6a>
 800016e:	030b      	lsls	r3, r1, #12
 8000170:	1ac0      	subs	r0, r0, r3
 8000172:	4152      	adcs	r2, r2
 8000174:	0ac3      	lsrs	r3, r0, #11
 8000176:	428b      	cmp	r3, r1
 8000178:	d301      	bcc.n	800017e <__udivsi3+0x76>
 800017a:	02cb      	lsls	r3, r1, #11
 800017c:	1ac0      	subs	r0, r0, r3
 800017e:	4152      	adcs	r2, r2
 8000180:	0a83      	lsrs	r3, r0, #10
 8000182:	428b      	cmp	r3, r1
 8000184:	d301      	bcc.n	800018a <__udivsi3+0x82>
 8000186:	028b      	lsls	r3, r1, #10
 8000188:	1ac0      	subs	r0, r0, r3
 800018a:	4152      	adcs	r2, r2
 800018c:	0a43      	lsrs	r3, r0, #9
 800018e:	428b      	cmp	r3, r1
 8000190:	d301      	bcc.n	8000196 <__udivsi3+0x8e>
 8000192:	024b      	lsls	r3, r1, #9
 8000194:	1ac0      	subs	r0, r0, r3
 8000196:	4152      	adcs	r2, r2
 8000198:	0a03      	lsrs	r3, r0, #8
 800019a:	428b      	cmp	r3, r1
 800019c:	d301      	bcc.n	80001a2 <__udivsi3+0x9a>
 800019e:	020b      	lsls	r3, r1, #8
 80001a0:	1ac0      	subs	r0, r0, r3
 80001a2:	4152      	adcs	r2, r2
 80001a4:	d2cd      	bcs.n	8000142 <__udivsi3+0x3a>
 80001a6:	09c3      	lsrs	r3, r0, #7
 80001a8:	428b      	cmp	r3, r1
 80001aa:	d301      	bcc.n	80001b0 <__udivsi3+0xa8>
 80001ac:	01cb      	lsls	r3, r1, #7
 80001ae:	1ac0      	subs	r0, r0, r3
 80001b0:	4152      	adcs	r2, r2
 80001b2:	0983      	lsrs	r3, r0, #6
 80001b4:	428b      	cmp	r3, r1
 80001b6:	d301      	bcc.n	80001bc <__udivsi3+0xb4>
 80001b8:	018b      	lsls	r3, r1, #6
 80001ba:	1ac0      	subs	r0, r0, r3
 80001bc:	4152      	adcs	r2, r2
 80001be:	0943      	lsrs	r3, r0, #5
 80001c0:	428b      	cmp	r3, r1
 80001c2:	d301      	bcc.n	80001c8 <__udivsi3+0xc0>
 80001c4:	014b      	lsls	r3, r1, #5
 80001c6:	1ac0      	subs	r0, r0, r3
 80001c8:	4152      	adcs	r2, r2
 80001ca:	0903      	lsrs	r3, r0, #4
 80001cc:	428b      	cmp	r3, r1
 80001ce:	d301      	bcc.n	80001d4 <__udivsi3+0xcc>
 80001d0:	010b      	lsls	r3, r1, #4
 80001d2:	1ac0      	subs	r0, r0, r3
 80001d4:	4152      	adcs	r2, r2
 80001d6:	08c3      	lsrs	r3, r0, #3
 80001d8:	428b      	cmp	r3, r1
 80001da:	d301      	bcc.n	80001e0 <__udivsi3+0xd8>
 80001dc:	00cb      	lsls	r3, r1, #3
 80001de:	1ac0      	subs	r0, r0, r3
 80001e0:	4152      	adcs	r2, r2
 80001e2:	0883      	lsrs	r3, r0, #2
 80001e4:	428b      	cmp	r3, r1
 80001e6:	d301      	bcc.n	80001ec <__udivsi3+0xe4>
 80001e8:	008b      	lsls	r3, r1, #2
 80001ea:	1ac0      	subs	r0, r0, r3
 80001ec:	4152      	adcs	r2, r2
 80001ee:	0843      	lsrs	r3, r0, #1
 80001f0:	428b      	cmp	r3, r1
 80001f2:	d301      	bcc.n	80001f8 <__udivsi3+0xf0>
 80001f4:	004b      	lsls	r3, r1, #1
 80001f6:	1ac0      	subs	r0, r0, r3
 80001f8:	4152      	adcs	r2, r2
 80001fa:	1a41      	subs	r1, r0, r1
 80001fc:	d200      	bcs.n	8000200 <__udivsi3+0xf8>
 80001fe:	4601      	mov	r1, r0
 8000200:	4152      	adcs	r2, r2
 8000202:	4610      	mov	r0, r2
 8000204:	4770      	bx	lr
 8000206:	e7ff      	b.n	8000208 <__udivsi3+0x100>
 8000208:	b501      	push	{r0, lr}
 800020a:	2000      	movs	r0, #0
 800020c:	f000 f806 	bl	800021c <__aeabi_idiv0>
 8000210:	bd02      	pop	{r1, pc}
 8000212:	46c0      	nop			@ (mov r8, r8)

08000214 <__aeabi_uidivmod>:
 8000214:	2900      	cmp	r1, #0
 8000216:	d0f7      	beq.n	8000208 <__udivsi3+0x100>
 8000218:	e776      	b.n	8000108 <__udivsi3>
 800021a:	4770      	bx	lr

0800021c <__aeabi_idiv0>:
 800021c:	4770      	bx	lr
 800021e:	46c0      	nop			@ (mov r8, r8)

08000220 <MX_GPIO_Init>:
 * @brief GPIO Initialization Function
 * @param None
 * @retval None
 */
static void MX_GPIO_Init(void)
{
 8000220:	b5f0      	push	{r4, r5, r6, r7, lr}
 8000222:	46c6      	mov	lr, r8
 8000224:	b500      	push	{lr}
 8000226:	b08c      	sub	sp, #48	@ 0x30
	LL_EXTI_InitTypeDef EXTI_InitStruct =
 8000228:	ac0a      	add	r4, sp, #40	@ 0x28
 800022a:	2208      	movs	r2, #8
 800022c:	2100      	movs	r1, #0
 800022e:	0020      	movs	r0, r4
 8000230:	f000 fe48 	bl	8000ec4 <memset>
	{ 0 };
	LL_GPIO_InitTypeDef GPIO_InitStruct =
 8000234:	2218      	movs	r2, #24
 8000236:	2100      	movs	r1, #0
 8000238:	a804      	add	r0, sp, #16
 800023a:	f000 fe43 	bl	8000ec4 <memset>
  * @retval None
*/
__STATIC_INLINE void LL_AHB1_GRP1_EnableClock(uint32_t Periphs)
{
  __IO uint32_t tmpreg;
  SET_BIT(RCC->AHBENR, Periphs);
 800023e:	4b24      	ldr	r3, [pc, #144]	@ (80002d0 <MX_GPIO_Init+0xb0>)
 8000240:	695a      	ldr	r2, [r3, #20]
 8000242:	2180      	movs	r1, #128	@ 0x80
 8000244:	0309      	lsls	r1, r1, #12
 8000246:	430a      	orrs	r2, r1
 8000248:	615a      	str	r2, [r3, #20]
  /* Delay after an RCC peripheral clock enabling */
  tmpreg = READ_BIT(RCC->AHBENR, Periphs);
 800024a:	695a      	ldr	r2, [r3, #20]
 800024c:	400a      	ands	r2, r1
 800024e:	9203      	str	r2, [sp, #12]
  (void)tmpreg;
 8000250:	9a03      	ldr	r2, [sp, #12]
  SET_BIT(RCC->AHBENR, Periphs);
 8000252:	695a      	ldr	r2, [r3, #20]
 8000254:	2180      	movs	r1, #128	@ 0x80
 8000256:	03c9      	lsls	r1, r1, #15
 8000258:	430a      	orrs	r2, r1
 800025a:	615a      	str	r2, [r3, #20]
  tmpreg = READ_BIT(RCC->AHBENR, Periphs);
 800025c:	695a      	ldr	r2, [r3, #20]
 800025e:	400a      	ands	r2, r1
 8000260:	9202      	str	r2, [sp, #8]
  (void)tmpreg;
 8000262:	9a02      	ldr	r2, [sp, #8]
  SET_BIT(RCC->AHBENR, Periphs);
 8000264:	695a      	ldr	r2, [r3, #20]
 8000266:	2180      	movs	r1, #128	@ 0x80
 8000268:	0289      	lsls	r1, r1, #10
 800026a:	430a      	orrs	r2, r1
 800026c:	615a      	str	r2, [r3, #20]
  tmpreg = READ_BIT(RCC->AHBENR, Periphs);
 800026e:	695b      	ldr	r3, [r3, #20]
 8000270:	400b      	ands	r3, r1
 8000272:	9301      	str	r3, [sp, #4]
  (void)tmpreg;
 8000274:	9b01      	ldr	r3, [sp, #4]
  *         @arg @ref LL_GPIO_PIN_ALL
  * @retval None
  */
__STATIC_INLINE void LL_GPIO_ResetOutputPin(GPIO_TypeDef *GPIOx, uint32_t PinMask)
{
  WRITE_REG(GPIOx->BRR, PinMask);
 8000276:	2790      	movs	r7, #144	@ 0x90
 8000278:	05ff      	lsls	r7, r7, #23
 800027a:	2620      	movs	r6, #32
 800027c:	62be      	str	r6, [r7, #40]	@ 0x28
  *         @arg @ref LL_SYSCFG_EXTI_LINE15
  * @retval None
  */
__STATIC_INLINE void LL_SYSCFG_SetEXTISource(uint32_t Port, uint32_t Line)
{
  MODIFY_REG(SYSCFG->EXTICR[Line & 0xFF], SYSCFG_EXTICR1_EXTI0 << (Line >> 16), Port << (Line >> 16));
 800027e:	4a15      	ldr	r2, [pc, #84]	@ (80002d4 <MX_GPIO_Init+0xb4>)
 8000280:	6953      	ldr	r3, [r2, #20]
 8000282:	21f0      	movs	r1, #240	@ 0xf0
 8000284:	438b      	bics	r3, r1
 8000286:	4333      	orrs	r3, r6
 8000288:	6153      	str	r3, [r2, #20]
  MODIFY_REG(GPIOx->PUPDR, ((Pin * Pin) * GPIO_PUPDR_PUPDR0), ((Pin * Pin) * Pull));
 800028a:	4b13      	ldr	r3, [pc, #76]	@ (80002d8 <MX_GPIO_Init+0xb8>)
 800028c:	68da      	ldr	r2, [r3, #12]
 800028e:	4913      	ldr	r1, [pc, #76]	@ (80002dc <MX_GPIO_Init+0xbc>)
 8000290:	400a      	ands	r2, r1
 8000292:	60da      	str	r2, [r3, #12]
  MODIFY_REG(GPIOx->MODER, ((Pin * Pin) * GPIO_MODER_MODER0), ((Pin * Pin) * Mode));
 8000294:	681a      	ldr	r2, [r3, #0]
 8000296:	400a      	ands	r2, r1
 8000298:	601a      	str	r2, [r3, #0]

	/**/
	LL_GPIO_SetPinMode(B1_GPIO_Port, B1_Pin, LL_GPIO_MODE_INPUT);

	/**/
	EXTI_InitStruct.Line_0_31 = LL_EXTI_LINE_13;
 800029a:	2380      	movs	r3, #128	@ 0x80
 800029c:	019b      	lsls	r3, r3, #6
 800029e:	930a      	str	r3, [sp, #40]	@ 0x28
	EXTI_InitStruct.LineCommand = ENABLE;
 80002a0:	2301      	movs	r3, #1
 80002a2:	4698      	mov	r8, r3
 80002a4:	7123      	strb	r3, [r4, #4]
	EXTI_InitStruct.Mode = LL_EXTI_MODE_IT;
 80002a6:	2500      	movs	r5, #0
 80002a8:	7165      	strb	r5, [r4, #5]
	EXTI_InitStruct.Trigger = LL_EXTI_TRIGGER_FALLING;
 80002aa:	3301      	adds	r3, #1
 80002ac:	71a3      	strb	r3, [r4, #6]
	LL_EXTI_Init(&EXTI_InitStruct);
 80002ae:	0020      	movs	r0, r4
 80002b0:	f000 f9d0 	bl	8000654 <LL_EXTI_Init>

	/**/
	GPIO_InitStruct.Pin = LD2_Pin;
 80002b4:	9604      	str	r6, [sp, #16]
	GPIO_InitStruct.Mode = LL_GPIO_MODE_OUTPUT;
 80002b6:	4643      	mov	r3, r8
 80002b8:	9305      	str	r3, [sp, #20]
	GPIO_InitStruct.Speed = LL_GPIO_SPEED_FREQ_LOW;
 80002ba:	9506      	str	r5, [sp, #24]
	GPIO_InitStruct.OutputType = LL_GPIO_OUTPUT_PUSHPULL;
 80002bc:	9507      	str	r5, [sp, #28]
	GPIO_InitStruct.Pull = LL_GPIO_PULL_NO;
 80002be:	9508      	str	r5, [sp, #32]
	LL_GPIO_Init(LD2_GPIO_Port, &GPIO_InitStruct);
 80002c0:	a904      	add	r1, sp, #16
 80002c2:	0038      	movs	r0, r7
 80002c4:	f000 fb06 	bl	80008d4 <LL_GPIO_Init>

	/* USER CODE BEGIN MX_GPIO_Init_2 */
	/* USER CODE END MX_GPIO_Init_2 */
}
 80002c8:	b00c      	add	sp, #48	@ 0x30
 80002ca:	bc80      	pop	{r7}
 80002cc:	46b8      	mov	r8, r7
 80002ce:	bdf0      	pop	{r4, r5, r6, r7, pc}
 80002d0:	40021000 	.word	0x40021000
 80002d4:	40010000 	.word	0x40010000
 80002d8:	48000800 	.word	0x48000800
 80002dc:	f3ffffff 	.word	0xf3ffffff

080002e0 <MX_USART2_UART_Init>:
{
 80002e0:	b5f0      	push	{r4, r5, r6, r7, lr}
 80002e2:	b091      	sub	sp, #68	@ 0x44
	LL_USART_InitTypeDef USART_InitStruct =
 80002e4:	221c      	movs	r2, #28
 80002e6:	2100      	movs	r1, #0
 80002e8:	a809      	add	r0, sp, #36	@ 0x24
 80002ea:	f000 fdeb 	bl	8000ec4 <memset>
	LL_GPIO_InitTypeDef GPIO_InitStruct =
 80002ee:	2218      	movs	r2, #24
 80002f0:	2100      	movs	r1, #0
 80002f2:	a803      	add	r0, sp, #12
 80002f4:	f000 fde6 	bl	8000ec4 <memset>
  * @retval None
*/
__STATIC_INLINE void LL_APB1_GRP1_EnableClock(uint32_t Periphs)
{
  __IO uint32_t tmpreg;
  SET_BIT(RCC->APB1ENR, Periphs);
 80002f8:	4b26      	ldr	r3, [pc, #152]	@ (8000394 <MX_USART2_UART_Init+0xb4>)
 80002fa:	69d9      	ldr	r1, [r3, #28]
 80002fc:	2280      	movs	r2, #128	@ 0x80
 80002fe:	0292      	lsls	r2, r2, #10
 8000300:	4311      	orrs	r1, r2
 8000302:	61d9      	str	r1, [r3, #28]
  /* Delay after an RCC peripheral clock enabling */
  tmpreg = READ_BIT(RCC->APB1ENR, Periphs);
 8000304:	69d9      	ldr	r1, [r3, #28]
 8000306:	4011      	ands	r1, r2
 8000308:	9102      	str	r1, [sp, #8]
  (void)tmpreg;
 800030a:	9902      	ldr	r1, [sp, #8]
  SET_BIT(RCC->AHBENR, Periphs);
 800030c:	6959      	ldr	r1, [r3, #20]
 800030e:	4311      	orrs	r1, r2
 8000310:	6159      	str	r1, [r3, #20]
  tmpreg = READ_BIT(RCC->AHBENR, Periphs);
 8000312:	695b      	ldr	r3, [r3, #20]
 8000314:	4013      	ands	r3, r2
 8000316:	9301      	str	r3, [sp, #4]
  (void)tmpreg;
 8000318:	9b01      	ldr	r3, [sp, #4]
	GPIO_InitStruct.Pin = USART_TX_Pin;
 800031a:	2304      	movs	r3, #4
 800031c:	9303      	str	r3, [sp, #12]
	GPIO_InitStruct.Mode = LL_GPIO_MODE_ALTERNATE;
 800031e:	2402      	movs	r4, #2
 8000320:	9404      	str	r4, [sp, #16]
	GPIO_InitStruct.Alternate = LL_GPIO_AF_1;
 8000322:	2501      	movs	r5, #1
 8000324:	9508      	str	r5, [sp, #32]
	LL_GPIO_Init(USART_TX_GPIO_Port, &GPIO_InitStruct);
 8000326:	2790      	movs	r7, #144	@ 0x90
 8000328:	05ff      	lsls	r7, r7, #23
 800032a:	a903      	add	r1, sp, #12
 800032c:	0038      	movs	r0, r7
 800032e:	f000 fad1 	bl	80008d4 <LL_GPIO_Init>
	GPIO_InitStruct.Pin = USART_RX_Pin;
 8000332:	2608      	movs	r6, #8
 8000334:	9603      	str	r6, [sp, #12]
	GPIO_InitStruct.Mode = LL_GPIO_MODE_ALTERNATE;
 8000336:	9404      	str	r4, [sp, #16]
	GPIO_InitStruct.Speed = LL_GPIO_SPEED_FREQ_LOW;
 8000338:	2400      	movs	r4, #0
 800033a:	9405      	str	r4, [sp, #20]
	GPIO_InitStruct.OutputType = LL_GPIO_OUTPUT_PUSHPULL;
 800033c:	9406      	str	r4, [sp, #24]
	GPIO_InitStruct.Pull = LL_GPIO_PULL_NO;
 800033e:	9407      	str	r4, [sp, #28]
	GPIO_InitStruct.Alternate = LL_GPIO_AF_1;
 8000340:	9508      	str	r5, [sp, #32]
	LL_GPIO_Init(USART_RX_GPIO_Port, &GPIO_InitStruct);
 8000342:	a903      	add	r1, sp, #12
 8000344:	0038      	movs	r0, r7
 8000346:	f000 fac5 	bl	80008d4 <LL_GPIO_Init>
	USART_InitStruct.BaudRate = 38400;
 800034a:	2396      	movs	r3, #150	@ 0x96
 800034c:	021b      	lsls	r3, r3, #8
 800034e:	9309      	str	r3, [sp, #36]	@ 0x24
	USART_InitStruct.DataWidth = LL_USART_DATAWIDTH_8B;
 8000350:	940a      	str	r4, [sp, #40]	@ 0x28
	USART_InitStruct.StopBits = LL_USART_STOPBITS_1;
 8000352:	940b      	str	r4, [sp, #44]	@ 0x2c
	USART_InitStruct.Parity = LL_USART_PARITY_NONE;
 8000354:	940c      	str	r4, [sp, #48]	@ 0x30
	USART_InitStruct.TransferDirection = LL_USART_DIRECTION_TX_RX;
 8000356:	230c      	movs	r3, #12
 8000358:	930d      	str	r3, [sp, #52]	@ 0x34
	USART_InitStruct.HardwareFlowControl = LL_USART_HWCONTROL_NONE;
 800035a:	940e      	str	r4, [sp, #56]	@ 0x38
	USART_InitStruct.OverSampling = LL_USART_OVERSAMPLING_16;
 800035c:	940f      	str	r4, [sp, #60]	@ 0x3c
	LL_USART_Init(USART2, &USART_InitStruct);
 800035e:	4c0e      	ldr	r4, [pc, #56]	@ (8000398 <MX_USART2_UART_Init+0xb8>)
 8000360:	a909      	add	r1, sp, #36	@ 0x24
 8000362:	0020      	movs	r0, r4
 8000364:	f000 fcec 	bl	8000d40 <LL_USART_Init>
 */
__STATIC_FORCEINLINE uint32_t __get_PRIMASK(void)
{
  uint32_t result;

  __ASM volatile ("MRS %0, primask" : "=r" (result) :: "memory");
 8000368:	f3ef 8210 	mrs	r2, PRIMASK
  \details Assigns the given value to the Priority Mask Register.
  \param [in]    priMask  Priority Mask
 */
__STATIC_FORCEINLINE void __set_PRIMASK(uint32_t priMask)
{
  __ASM volatile ("MSR primask, %0" : : "r" (priMask) : "memory");
 800036c:	f385 8810 	msr	PRIMASK, r5
  * @param  USARTx USART Instance
  * @retval None
  */
__STATIC_INLINE void LL_USART_DisableIT_CTS(USART_TypeDef *USARTx)
{
  ATOMIC_CLEAR_BIT(USARTx->CR3, USART_CR3_CTSIE);
 8000370:	68a3      	ldr	r3, [r4, #8]
 8000372:	490a      	ldr	r1, [pc, #40]	@ (800039c <MX_USART2_UART_Init+0xbc>)
 8000374:	400b      	ands	r3, r1
 8000376:	60a3      	str	r3, [r4, #8]
 8000378:	f382 8810 	msr	PRIMASK, r2
  CLEAR_BIT(USARTx->CR2, USART_CR2_CLKEN);
 800037c:	6863      	ldr	r3, [r4, #4]
 800037e:	4a08      	ldr	r2, [pc, #32]	@ (80003a0 <MX_USART2_UART_Init+0xc0>)
 8000380:	4013      	ands	r3, r2
 8000382:	6063      	str	r3, [r4, #4]
  CLEAR_BIT(USARTx->CR3, USART_CR3_HDSEL);
 8000384:	68a3      	ldr	r3, [r4, #8]
 8000386:	43b3      	bics	r3, r6
 8000388:	60a3      	str	r3, [r4, #8]
  SET_BIT(USARTx->CR1, USART_CR1_UE);
 800038a:	6823      	ldr	r3, [r4, #0]
 800038c:	432b      	orrs	r3, r5
 800038e:	6023      	str	r3, [r4, #0]
}
 8000390:	b011      	add	sp, #68	@ 0x44
 8000392:	bdf0      	pop	{r4, r5, r6, r7, pc}
 8000394:	40021000 	.word	0x40021000
 8000398:	40004400 	.word	0x40004400
 800039c:	fffffbff 	.word	0xfffffbff
 80003a0:	fffff7ff 	.word	0xfffff7ff

080003a4 <SystemClock_Config>:
{
 80003a4:	b510      	push	{r4, lr}
  *         @arg @ref LL_FLASH_LATENCY_1
  * @retval None
  */
__STATIC_INLINE void LL_FLASH_SetLatency(uint32_t Latency)
{
  MODIFY_REG(FLASH->ACR, FLASH_ACR_LATENCY, Latency);
 80003a6:	4a25      	ldr	r2, [pc, #148]	@ (800043c <SystemClock_Config+0x98>)
 80003a8:	6813      	ldr	r3, [r2, #0]
 80003aa:	2101      	movs	r1, #1
 80003ac:	438b      	bics	r3, r1
 80003ae:	430b      	orrs	r3, r1
 80003b0:	6013      	str	r3, [r2, #0]
  *         @arg @ref LL_FLASH_LATENCY_0
  *         @arg @ref LL_FLASH_LATENCY_1
  */
__STATIC_INLINE uint32_t LL_FLASH_GetLatency(void)
{
  return (uint32_t)(READ_BIT(FLASH->ACR, FLASH_ACR_LATENCY));
 80003b2:	4b22      	ldr	r3, [pc, #136]	@ (800043c <SystemClock_Config+0x98>)
 80003b4:	681b      	ldr	r3, [r3, #0]
	while (LL_FLASH_GetLatency() != LL_FLASH_LATENCY_1)
 80003b6:	07db      	lsls	r3, r3, #31
 80003b8:	d5fb      	bpl.n	80003b2 <SystemClock_Config+0xe>
  * @rmtoll CR           HSION         LL_RCC_HSI_Enable
  * @retval None
  */
__STATIC_INLINE void LL_RCC_HSI_Enable(void)
{
  SET_BIT(RCC->CR, RCC_CR_HSION);
 80003ba:	4a21      	ldr	r2, [pc, #132]	@ (8000440 <SystemClock_Config+0x9c>)
 80003bc:	6813      	ldr	r3, [r2, #0]
 80003be:	2101      	movs	r1, #1
 80003c0:	430b      	orrs	r3, r1
 80003c2:	6013      	str	r3, [r2, #0]
  * @rmtoll CR           HSIRDY        LL_RCC_HSI_IsReady
  * @retval State of bit (1 or 0).
  */
__STATIC_INLINE uint32_t LL_RCC_HSI_IsReady(void)
{
  return (READ_BIT(RCC->CR, RCC_CR_HSIRDY) == (RCC_CR_HSIRDY));
 80003c4:	4b1e      	ldr	r3, [pc, #120]	@ (8000440 <SystemClock_Config+0x9c>)
 80003c6:	681b      	ldr	r3, [r3, #0]
	while (LL_RCC_HSI_IsReady() != 1)
 80003c8:	079b      	lsls	r3, r3, #30
 80003ca:	d5fb      	bpl.n	80003c4 <SystemClock_Config+0x20>
  * @param  Value between Min_Data = 0x00 and Max_Data = 0x1F
  * @retval None
  */
__STATIC_INLINE void LL_RCC_HSI_SetCalibTrimming(uint32_t Value)
{
  MODIFY_REG(RCC->CR, RCC_CR_HSITRIM, Value << RCC_CR_HSITRIM_Pos);
 80003cc:	4b1c      	ldr	r3, [pc, #112]	@ (8000440 <SystemClock_Config+0x9c>)
 80003ce:	681a      	ldr	r2, [r3, #0]
 80003d0:	21f8      	movs	r1, #248	@ 0xf8
 80003d2:	438a      	bics	r2, r1
 80003d4:	3978      	subs	r1, #120	@ 0x78
 80003d6:	430a      	orrs	r2, r1
 80003d8:	601a      	str	r2, [r3, #0]
  *         @arg @ref LL_RCC_PLL_MUL_16
  * @retval None
  */
__STATIC_INLINE void LL_RCC_PLL_ConfigDomain_SYS(uint32_t Source, uint32_t PLLMul)
{
  MODIFY_REG(RCC->CFGR, RCC_CFGR_PLLSRC | RCC_CFGR_PLLMUL, (Source & RCC_CFGR_PLLSRC) | PLLMul);
 80003da:	6859      	ldr	r1, [r3, #4]
 80003dc:	4a19      	ldr	r2, [pc, #100]	@ (8000444 <SystemClock_Config+0xa0>)
 80003de:	4011      	ands	r1, r2
 80003e0:	22a0      	movs	r2, #160	@ 0xa0
 80003e2:	0392      	lsls	r2, r2, #14
 80003e4:	430a      	orrs	r2, r1
 80003e6:	605a      	str	r2, [r3, #4]
  MODIFY_REG(RCC->CFGR2, RCC_CFGR2_PREDIV, (Source & RCC_CFGR2_PREDIV));
 80003e8:	6ada      	ldr	r2, [r3, #44]	@ 0x2c
 80003ea:	210f      	movs	r1, #15
 80003ec:	438a      	bics	r2, r1
 80003ee:	62da      	str	r2, [r3, #44]	@ 0x2c
  SET_BIT(RCC->CR, RCC_CR_PLLON);
 80003f0:	6819      	ldr	r1, [r3, #0]
 80003f2:	2280      	movs	r2, #128	@ 0x80
 80003f4:	0452      	lsls	r2, r2, #17
 80003f6:	430a      	orrs	r2, r1
 80003f8:	601a      	str	r2, [r3, #0]
  return (READ_BIT(RCC->CR, RCC_CR_PLLRDY) == (RCC_CR_PLLRDY));
 80003fa:	4b11      	ldr	r3, [pc, #68]	@ (8000440 <SystemClock_Config+0x9c>)
 80003fc:	681b      	ldr	r3, [r3, #0]
	while (LL_RCC_PLL_IsReady() != 1)
 80003fe:	019b      	lsls	r3, r3, #6
 8000400:	d5fb      	bpl.n	80003fa <SystemClock_Config+0x56>
  MODIFY_REG(RCC->CFGR, RCC_CFGR_HPRE, Prescaler);
 8000402:	4b0f      	ldr	r3, [pc, #60]	@ (8000440 <SystemClock_Config+0x9c>)
 8000404:	685a      	ldr	r2, [r3, #4]
 8000406:	21f0      	movs	r1, #240	@ 0xf0
 8000408:	438a      	bics	r2, r1
 800040a:	605a      	str	r2, [r3, #4]
  MODIFY_REG(RCC->CFGR, RCC_CFGR_PPRE, Prescaler);
 800040c:	685a      	ldr	r2, [r3, #4]
 800040e:	490e      	ldr	r1, [pc, #56]	@ (8000448 <SystemClock_Config+0xa4>)
 8000410:	400a      	ands	r2, r1
 8000412:	605a      	str	r2, [r3, #4]
  MODIFY_REG(RCC->CFGR, RCC_CFGR_SW, Source);
 8000414:	685a      	ldr	r2, [r3, #4]
 8000416:	2103      	movs	r1, #3
 8000418:	438a      	bics	r2, r1
 800041a:	3901      	subs	r1, #1
 800041c:	430a      	orrs	r2, r1
 800041e:	605a      	str	r2, [r3, #4]
  return (uint32_t)(READ_BIT(RCC->CFGR, RCC_CFGR_SWS));
 8000420:	4b07      	ldr	r3, [pc, #28]	@ (8000440 <SystemClock_Config+0x9c>)
 8000422:	685a      	ldr	r2, [r3, #4]
 8000424:	230c      	movs	r3, #12
 8000426:	4013      	ands	r3, r2
	while (LL_RCC_GetSysClkSource() != LL_RCC_SYS_CLKSOURCE_STATUS_PLL)
 8000428:	2b08      	cmp	r3, #8
 800042a:	d1f9      	bne.n	8000420 <SystemClock_Config+0x7c>
	LL_Init1msTick(48000000);
 800042c:	4c07      	ldr	r4, [pc, #28]	@ (800044c <SystemClock_Config+0xa8>)
 800042e:	0020      	movs	r0, r4
 8000430:	f000 fd08 	bl	8000e44 <LL_Init1msTick>
	LL_SetSystemCoreClock(48000000);
 8000434:	0020      	movs	r0, r4
 8000436:	f000 fd37 	bl	8000ea8 <LL_SetSystemCoreClock>
}
 800043a:	bd10      	pop	{r4, pc}
 800043c:	40022000 	.word	0x40022000
 8000440:	40021000 	.word	0x40021000
 8000444:	ffc2ffff 	.word	0xffc2ffff
 8000448:	fffff8ff 	.word	0xfffff8ff
 800044c:	02dc6c00 	.word	0x02dc6c00

08000450 <main>:
{
 8000450:	b510      	push	{r4, lr}
 8000452:	b082      	sub	sp, #8
  * @retval None
*/
__STATIC_INLINE void LL_APB1_GRP2_EnableClock(uint32_t Periphs)
{
  __IO uint32_t tmpreg;
  SET_BIT(RCC->APB2ENR, Periphs);
 8000454:	4b16      	ldr	r3, [pc, #88]	@ (80004b0 <main+0x60>)
 8000456:	6999      	ldr	r1, [r3, #24]
 8000458:	2201      	movs	r2, #1
 800045a:	4311      	orrs	r1, r2
 800045c:	6199      	str	r1, [r3, #24]
  /* Delay after an RCC peripheral clock enabling */
  tmpreg = READ_BIT(RCC->APB2ENR, Periphs);
 800045e:	6999      	ldr	r1, [r3, #24]
 8000460:	400a      	ands	r2, r1
 8000462:	9201      	str	r2, [sp, #4]
  (void)tmpreg;
 8000464:	9a01      	ldr	r2, [sp, #4]
  SET_BIT(RCC->APB1ENR, Periphs);
 8000466:	69da      	ldr	r2, [r3, #28]
 8000468:	2180      	movs	r1, #128	@ 0x80
 800046a:	0549      	lsls	r1, r1, #21
 800046c:	430a      	orrs	r2, r1
 800046e:	61da      	str	r2, [r3, #28]
  tmpreg = READ_BIT(RCC->APB1ENR, Periphs);
 8000470:	69db      	ldr	r3, [r3, #28]
 8000472:	400b      	ands	r3, r1
 8000474:	9300      	str	r3, [sp, #0]
  (void)tmpreg;
 8000476:	9b00      	ldr	r3, [sp, #0]
	SystemClock_Config();
 8000478:	f7ff ff94 	bl	80003a4 <SystemClock_Config>
	MX_GPIO_Init();
 800047c:	f7ff fed0 	bl	8000220 <MX_GPIO_Init>
	MX_USART2_UART_Init();
 8000480:	f7ff ff2e 	bl	80002e0 <MX_USART2_UART_Init>
		for (uint32_t i = 0; i < 32; i++)
 8000484:	2400      	movs	r4, #0
 8000486:	e007      	b.n	8000498 <main+0x48>
  WRITE_REG(GPIOx->BRR, PinMask);
 8000488:	2390      	movs	r3, #144	@ 0x90
 800048a:	05db      	lsls	r3, r3, #23
 800048c:	2220      	movs	r2, #32
 800048e:	629a      	str	r2, [r3, #40]	@ 0x28
			LL_mDelay(200);
 8000490:	20c8      	movs	r0, #200	@ 0xc8
 8000492:	f000 fce7 	bl	8000e64 <LL_mDelay>
		for (uint32_t i = 0; i < 32; i++)
 8000496:	3401      	adds	r4, #1
 8000498:	2c1f      	cmp	r4, #31
 800049a:	d8f3      	bhi.n	8000484 <main+0x34>
			if (morseBinarySequence & (1U << i))
 800049c:	2301      	movs	r3, #1
 800049e:	40a3      	lsls	r3, r4
 80004a0:	4a04      	ldr	r2, [pc, #16]	@ (80004b4 <main+0x64>)
 80004a2:	4213      	tst	r3, r2
 80004a4:	d0f0      	beq.n	8000488 <main+0x38>
  WRITE_REG(GPIOx->BSRR, PinMask);
 80004a6:	2390      	movs	r3, #144	@ 0x90
 80004a8:	05db      	lsls	r3, r3, #23
 80004aa:	2220      	movs	r2, #32
 80004ac:	619a      	str	r2, [r3, #24]
}
 80004ae:	e7ef      	b.n	8000490 <main+0x40>
 80004b0:	40021000 	.word	0x40021000
 80004b4:	a9ddca80 	.word	0xa9ddca80

080004b8 <NMI_Handler>:
/******************************************************************************/
/**
  * @brief This function handles Non maskable interrupt.
  */
void NMI_Handler(void)
{
 80004b8:	b580      	push	{r7, lr}
 80004ba:	af00      	add	r7, sp, #0
  /* USER CODE BEGIN NonMaskableInt_IRQn 0 */

  /* USER CODE END NonMaskableInt_IRQn 0 */
  /* USER CODE BEGIN NonMaskableInt_IRQn 1 */
   while (1)
 80004bc:	46c0      	nop			@ (mov r8, r8)
 80004be:	e7fd      	b.n	80004bc <NMI_Handler+0x4>

080004c0 <HardFault_Handler>:

/**
  * @brief This function handles Hard fault interrupt.
  */
void HardFault_Handler(void)
{
 80004c0:	b580      	push	{r7, lr}
 80004c2:	af00      	add	r7, sp, #0
  /* USER CODE BEGIN HardFault_IRQn 0 */

  /* USER CODE END HardFault_IRQn 0 */
  while (1)
 80004c4:	46c0      	nop			@ (mov r8, r8)
 80004c6:	e7fd      	b.n	80004c4 <HardFault_Handler+0x4>

080004c8 <SVC_Handler>:

/**
  * @brief This function handles System service call via SWI instruction.
  */
void SVC_Handler(void)
{
 80004c8:	b580      	push	{r7, lr}
 80004ca:	af00      	add	r7, sp, #0

  /* USER CODE END SVC_IRQn 0 */
  /* USER CODE BEGIN SVC_IRQn 1 */

  /* USER CODE END SVC_IRQn 1 */
}
 80004cc:	46c0      	nop			@ (mov r8, r8)
 80004ce:	46bd      	mov	sp, r7
 80004d0:	bd80      	pop	{r7, pc}

080004d2 <PendSV_Handler>:

/**
  * @brief This function handles Pendable request for system service.
  */
void PendSV_Handler(void)
{
 80004d2:	b580      	push	{r7, lr}
 80004d4:	af00      	add	r7, sp, #0

  /* USER CODE END PendSV_IRQn 0 */
  /* USER CODE BEGIN PendSV_IRQn 1 */

  /* USER CODE END PendSV_IRQn 1 */
}
 80004d6:	46c0      	nop			@ (mov r8, r8)
 80004d8:	46bd      	mov	sp, r7
 80004da:	bd80      	pop	{r7, pc}

080004dc <SysTick_Handler>:

/**
  * @brief This function handles System tick timer.
  */
void SysTick_Handler(void)
{
 80004dc:	b580      	push	{r7, lr}
 80004de:	af00      	add	r7, sp, #0
  /* USER CODE END SysTick_IRQn 0 */

  /* USER CODE BEGIN SysTick_IRQn 1 */

  /* USER CODE END SysTick_IRQn 1 */
}
 80004e0:	46c0      	nop			@ (mov r8, r8)
 80004e2:	46bd      	mov	sp, r7
 80004e4:	bd80      	pop	{r7, pc}

080004e6 <SystemInit>:
  * @brief  Setup the microcontroller system
  * @param  None
  * @retval None
  */
void SystemInit(void)
{
 80004e6:	b580      	push	{r7, lr}
 80004e8:	af00      	add	r7, sp, #0
                         before branch to main program. This call is made inside
                         the "startup_stm32f0xx.s" file.
                         User can setups the default system clock (System clock source, PLL Multiplier
                         and Divider factors, AHB/APBx prescalers and Flash settings).
   */
}
 80004ea:	46c0      	nop			@ (mov r8, r8)
 80004ec:	46bd      	mov	sp, r7
 80004ee:	bd80      	pop	{r7, pc}

080004f0 <Reset_Handler>:
  .section .text.Reset_Handler
  .weak Reset_Handler
  .type Reset_Handler, %function
Reset_Handler:

  ldr   r0, =_estack
 80004f0:	480d      	ldr	r0, [pc, #52]	@ (8000528 <LoopForever+0x2>)
  mov   sp, r0          /* set stack pointer */
 80004f2:	4685      	mov	sp, r0

/* Call the clock system initialization function.*/
  bl  SystemInit
 80004f4:	f7ff fff7 	bl	80004e6 <SystemInit>

/* Copy the data segment initializers from flash to SRAM */
  ldr r0, =_sdata
 80004f8:	480c      	ldr	r0, [pc, #48]	@ (800052c <LoopForever+0x6>)
  ldr r1, =_edata
 80004fa:	490d      	ldr	r1, [pc, #52]	@ (8000530 <LoopForever+0xa>)
  ldr r2, =_sidata
 80004fc:	4a0d      	ldr	r2, [pc, #52]	@ (8000534 <LoopForever+0xe>)
  movs r3, #0
 80004fe:	2300      	movs	r3, #0
  b LoopCopyDataInit
 8000500:	e002      	b.n	8000508 <LoopCopyDataInit>

08000502 <CopyDataInit>:

CopyDataInit:
  ldr r4, [r2, r3]
 8000502:	58d4      	ldr	r4, [r2, r3]
  str r4, [r0, r3]
 8000504:	50c4      	str	r4, [r0, r3]
  adds r3, r3, #4
 8000506:	3304      	adds	r3, #4

08000508 <LoopCopyDataInit>:

LoopCopyDataInit:
  adds r4, r0, r3
 8000508:	18c4      	adds	r4, r0, r3
  cmp r4, r1
 800050a:	428c      	cmp	r4, r1
  bcc CopyDataInit
 800050c:	d3f9      	bcc.n	8000502 <CopyDataInit>
  
/* Zero fill the bss segment. */
  ldr r2, =_sbss
 800050e:	4a0a      	ldr	r2, [pc, #40]	@ (8000538 <LoopForever+0x12>)
  ldr r4, =_ebss
 8000510:	4c0a      	ldr	r4, [pc, #40]	@ (800053c <LoopForever+0x16>)
  movs r3, #0
 8000512:	2300      	movs	r3, #0
  b LoopFillZerobss
 8000514:	e001      	b.n	800051a <LoopFillZerobss>

08000516 <FillZerobss>:

FillZerobss:
  str  r3, [r2]
 8000516:	6013      	str	r3, [r2, #0]
  adds r2, r2, #4
 8000518:	3204      	adds	r2, #4

0800051a <LoopFillZerobss>:

LoopFillZerobss:
  cmp r2, r4
 800051a:	42a2      	cmp	r2, r4
  bcc FillZerobss
 800051c:	d3fb      	bcc.n	8000516 <FillZerobss>

/* Call static constructors */
  bl __libc_init_array
 800051e:	f000 fcd9 	bl	8000ed4 <__libc_init_array>
/* Call the application's entry point.*/
  bl main
 8000522:	f7ff ff95 	bl	8000450 <main>

08000526 <LoopForever>:

LoopForever:
    b LoopForever
 8000526:	e7fe      	b.n	8000526 <LoopForever>
  ldr   r0, =_estack
 8000528:	20002000 	.word	0x20002000
  ldr r0, =_sdata
 800052c:	20000000 	.word	0x20000000
  ldr r1, =_edata
 8000530:	20000004 	.word	0x20000004
  ldr r2, =_sidata
 8000534:	08000f54 	.word	0x08000f54
  ldr r2, =_sbss
 8000538:	20000004 	.word	0x20000004
  ldr r4, =_ebss
 800053c:	20000020 	.word	0x20000020

08000540 <ADC1_IRQHandler>:
 * @retval : None
*/
    .section .text.Default_Handler,"ax",%progbits
Default_Handler:
Infinite_Loop:
  b Infinite_Loop
 8000540:	e7fe      	b.n	8000540 <ADC1_IRQHandler>
	...

08000544 <LL_EXTI_EnableIT_0_31>:
  *         @arg @ref LL_EXTI_LINE_ALL_0_31
  * @note   Please check each device line mapping for EXTI Line availability
  * @retval None
  */
__STATIC_INLINE void LL_EXTI_EnableIT_0_31(uint32_t ExtiLine)
{
 8000544:	b580      	push	{r7, lr}
 8000546:	b082      	sub	sp, #8
 8000548:	af00      	add	r7, sp, #0
 800054a:	6078      	str	r0, [r7, #4]
  SET_BIT(EXTI->IMR, ExtiLine);
 800054c:	4b04      	ldr	r3, [pc, #16]	@ (8000560 <LL_EXTI_EnableIT_0_31+0x1c>)
 800054e:	6819      	ldr	r1, [r3, #0]
 8000550:	4b03      	ldr	r3, [pc, #12]	@ (8000560 <LL_EXTI_EnableIT_0_31+0x1c>)
 8000552:	687a      	ldr	r2, [r7, #4]
 8000554:	430a      	orrs	r2, r1
 8000556:	601a      	str	r2, [r3, #0]
}
 8000558:	46c0      	nop			@ (mov r8, r8)
 800055a:	46bd      	mov	sp, r7
 800055c:	b002      	add	sp, #8
 800055e:	bd80      	pop	{r7, pc}
 8000560:	40010400 	.word	0x40010400

08000564 <LL_EXTI_DisableIT_0_31>:
  *         @arg @ref LL_EXTI_LINE_ALL_0_31
  * @note   Please check each device line mapping for EXTI Line availability
  * @retval None
  */
__STATIC_INLINE void LL_EXTI_DisableIT_0_31(uint32_t ExtiLine)
{
 8000564:	b580      	push	{r7, lr}
 8000566:	b082      	sub	sp, #8
 8000568:	af00      	add	r7, sp, #0
 800056a:	6078      	str	r0, [r7, #4]
  CLEAR_BIT(EXTI->IMR, ExtiLine);
 800056c:	4b05      	ldr	r3, [pc, #20]	@ (8000584 <LL_EXTI_DisableIT_0_31+0x20>)
 800056e:	681a      	ldr	r2, [r3, #0]
 8000570:	687b      	ldr	r3, [r7, #4]
 8000572:	43d9      	mvns	r1, r3
 8000574:	4b03      	ldr	r3, [pc, #12]	@ (8000584 <LL_EXTI_DisableIT_0_31+0x20>)
 8000576:	400a      	ands	r2, r1
 8000578:	601a      	str	r2, [r3, #0]
}
 800057a:	46c0      	nop			@ (mov r8, r8)
 800057c:	46bd      	mov	sp, r7
 800057e:	b002      	add	sp, #8
 8000580:	bd80      	pop	{r7, pc}
 8000582:	46c0      	nop			@ (mov r8, r8)
 8000584:	40010400 	.word	0x40010400

08000588 <LL_EXTI_EnableEvent_0_31>:
  *         @arg @ref LL_EXTI_LINE_ALL_0_31
  * @note   Please check each device line mapping for EXTI Line availability
  * @retval None
  */
__STATIC_INLINE void LL_EXTI_EnableEvent_0_31(uint32_t ExtiLine)
{
 8000588:	b580      	push	{r7, lr}
 800058a:	b082      	sub	sp, #8
 800058c:	af00      	add	r7, sp, #0
 800058e:	6078      	str	r0, [r7, #4]
  SET_BIT(EXTI->EMR, ExtiLine);
 8000590:	4b04      	ldr	r3, [pc, #16]	@ (80005a4 <LL_EXTI_EnableEvent_0_31+0x1c>)
 8000592:	6859      	ldr	r1, [r3, #4]
 8000594:	4b03      	ldr	r3, [pc, #12]	@ (80005a4 <LL_EXTI_EnableEvent_0_31+0x1c>)
 8000596:	687a      	ldr	r2, [r7, #4]
 8000598:	430a      	orrs	r2, r1
 800059a:	605a      	str	r2, [r3, #4]

}
 800059c:	46c0      	nop			@ (mov r8, r8)
 800059e:	46bd      	mov	sp, r7
 80005a0:	b002      	add	sp, #8
 80005a2:	bd80      	pop	{r7, pc}
 80005a4:	40010400 	.word	0x40010400

080005a8 <LL_EXTI_DisableEvent_0_31>:
  *         @arg @ref LL_EXTI_LINE_ALL_0_31
  * @note   Please check each device line mapping for EXTI Line availability
  * @retval None
  */
__STATIC_INLINE void LL_EXTI_DisableEvent_0_31(uint32_t ExtiLine)
{
 80005a8:	b580      	push	{r7, lr}
 80005aa:	b082      	sub	sp, #8
 80005ac:	af00      	add	r7, sp, #0
 80005ae:	6078      	str	r0, [r7, #4]
  CLEAR_BIT(EXTI->EMR, ExtiLine);
 80005b0:	4b05      	ldr	r3, [pc, #20]	@ (80005c8 <LL_EXTI_DisableEvent_0_31+0x20>)
 80005b2:	685a      	ldr	r2, [r3, #4]
 80005b4:	687b      	ldr	r3, [r7, #4]
 80005b6:	43d9      	mvns	r1, r3
 80005b8:	4b03      	ldr	r3, [pc, #12]	@ (80005c8 <LL_EXTI_DisableEvent_0_31+0x20>)
 80005ba:	400a      	ands	r2, r1
 80005bc:	605a      	str	r2, [r3, #4]
}
 80005be:	46c0      	nop			@ (mov r8, r8)
 80005c0:	46bd      	mov	sp, r7
 80005c2:	b002      	add	sp, #8
 80005c4:	bd80      	pop	{r7, pc}
 80005c6:	46c0      	nop			@ (mov r8, r8)
 80005c8:	40010400 	.word	0x40010400

080005cc <LL_EXTI_EnableRisingTrig_0_31>:
  *         @arg @ref LL_EXTI_LINE_31
  * @note   Please check each device line mapping for EXTI Line availability
  * @retval None
  */
__STATIC_INLINE void LL_EXTI_EnableRisingTrig_0_31(uint32_t ExtiLine)
{
 80005cc:	b580      	push	{r7, lr}
 80005ce:	b082      	sub	sp, #8
 80005d0:	af00      	add	r7, sp, #0
 80005d2:	6078      	str	r0, [r7, #4]
  SET_BIT(EXTI->RTSR, ExtiLine);
 80005d4:	4b04      	ldr	r3, [pc, #16]	@ (80005e8 <LL_EXTI_EnableRisingTrig_0_31+0x1c>)
 80005d6:	6899      	ldr	r1, [r3, #8]
 80005d8:	4b03      	ldr	r3, [pc, #12]	@ (80005e8 <LL_EXTI_EnableRisingTrig_0_31+0x1c>)
 80005da:	687a      	ldr	r2, [r7, #4]
 80005dc:	430a      	orrs	r2, r1
 80005de:	609a      	str	r2, [r3, #8]

}
 80005e0:	46c0      	nop			@ (mov r8, r8)
 80005e2:	46bd      	mov	sp, r7
 80005e4:	b002      	add	sp, #8
 80005e6:	bd80      	pop	{r7, pc}
 80005e8:	40010400 	.word	0x40010400

080005ec <LL_EXTI_DisableRisingTrig_0_31>:
  *         @arg @ref LL_EXTI_LINE_31
  * @note   Please check each device line mapping for EXTI Line availability
  * @retval None
  */
__STATIC_INLINE void LL_EXTI_DisableRisingTrig_0_31(uint32_t ExtiLine)
{
 80005ec:	b580      	push	{r7, lr}
 80005ee:	b082      	sub	sp, #8
 80005f0:	af00      	add	r7, sp, #0
 80005f2:	6078      	str	r0, [r7, #4]
  CLEAR_BIT(EXTI->RTSR, ExtiLine);
 80005f4:	4b05      	ldr	r3, [pc, #20]	@ (800060c <LL_EXTI_DisableRisingTrig_0_31+0x20>)
 80005f6:	689a      	ldr	r2, [r3, #8]
 80005f8:	687b      	ldr	r3, [r7, #4]
 80005fa:	43d9      	mvns	r1, r3
 80005fc:	4b03      	ldr	r3, [pc, #12]	@ (800060c <LL_EXTI_DisableRisingTrig_0_31+0x20>)
 80005fe:	400a      	ands	r2, r1
 8000600:	609a      	str	r2, [r3, #8]

}
 8000602:	46c0      	nop			@ (mov r8, r8)
 8000604:	46bd      	mov	sp, r7
 8000606:	b002      	add	sp, #8
 8000608:	bd80      	pop	{r7, pc}
 800060a:	46c0      	nop			@ (mov r8, r8)
 800060c:	40010400 	.word	0x40010400

08000610 <LL_EXTI_EnableFallingTrig_0_31>:
  *         @arg @ref LL_EXTI_LINE_31
  * @note   Please check each device line mapping for EXTI Line availability
  * @retval None
  */
__STATIC_INLINE void LL_EXTI_EnableFallingTrig_0_31(uint32_t ExtiLine)
{
 8000610:	b580      	push	{r7, lr}
 8000612:	b082      	sub	sp, #8
 8000614:	af00      	add	r7, sp, #0
 8000616:	6078      	str	r0, [r7, #4]
  SET_BIT(EXTI->FTSR, ExtiLine);
 8000618:	4b04      	ldr	r3, [pc, #16]	@ (800062c <LL_EXTI_EnableFallingTrig_0_31+0x1c>)
 800061a:	68d9      	ldr	r1, [r3, #12]
 800061c:	4b03      	ldr	r3, [pc, #12]	@ (800062c <LL_EXTI_EnableFallingTrig_0_31+0x1c>)
 800061e:	687a      	ldr	r2, [r7, #4]
 8000620:	430a      	orrs	r2, r1
 8000622:	60da      	str	r2, [r3, #12]
}
 8000624:	46c0      	nop			@ (mov r8, r8)
 8000626:	46bd      	mov	sp, r7
 8000628:	b002      	add	sp, #8
 800062a:	bd80      	pop	{r7, pc}
 800062c:	40010400 	.word	0x40010400

08000630 <LL_EXTI_DisableFallingTrig_0_31>:
  *         @arg @ref LL_EXTI_LINE_31
  * @note   Please check each device line mapping for EXTI Line availability
  * @retval None
  */
__STATIC_INLINE void LL_EXTI_DisableFallingTrig_0_31(uint32_t ExtiLine)
{
 8000630:	b580      	push	{r7, lr}
 8000632:	b082      	sub	sp, #8
 8000634:	af00      	add	r7, sp, #0
 8000636:	6078      	str	r0, [r7, #4]
  CLEAR_BIT(EXTI->FTSR, ExtiLine);
 8000638:	4b05      	ldr	r3, [pc, #20]	@ (8000650 <LL_EXTI_DisableFallingTrig_0_31+0x20>)
 800063a:	68da      	ldr	r2, [r3, #12]
 800063c:	687b      	ldr	r3, [r7, #4]
 800063e:	43d9      	mvns	r1, r3
 8000640:	4b03      	ldr	r3, [pc, #12]	@ (8000650 <LL_EXTI_DisableFallingTrig_0_31+0x20>)
 8000642:	400a      	ands	r2, r1
 8000644:	60da      	str	r2, [r3, #12]
}
 8000646:	46c0      	nop			@ (mov r8, r8)
 8000648:	46bd      	mov	sp, r7
 800064a:	b002      	add	sp, #8
 800064c:	bd80      	pop	{r7, pc}
 800064e:	46c0      	nop			@ (mov r8, r8)
 8000650:	40010400 	.word	0x40010400

08000654 <LL_EXTI_Init>:
  * @retval An ErrorStatus enumeration value:
  *          - SUCCESS: EXTI registers are initialized
  *          - ERROR: not applicable
  */
uint32_t LL_EXTI_Init(LL_EXTI_InitTypeDef *EXTI_InitStruct)
{
 8000654:	b580      	push	{r7, lr}
 8000656:	b084      	sub	sp, #16
 8000658:	af00      	add	r7, sp, #0
 800065a:	6078      	str	r0, [r7, #4]
  ErrorStatus status = SUCCESS;
 800065c:	230f      	movs	r3, #15
 800065e:	18fb      	adds	r3, r7, r3
 8000660:	2200      	movs	r2, #0
 8000662:	701a      	strb	r2, [r3, #0]
  assert_param(IS_LL_EXTI_LINE_0_31(EXTI_InitStruct->Line_0_31));
  assert_param(IS_FUNCTIONAL_STATE(EXTI_InitStruct->LineCommand));
  assert_param(IS_LL_EXTI_MODE(EXTI_InitStruct->Mode));

  /* ENABLE LineCommand */
  if (EXTI_InitStruct->LineCommand != DISABLE)
 8000664:	687b      	ldr	r3, [r7, #4]
 8000666:	791b      	ldrb	r3, [r3, #4]
 8000668:	2b00      	cmp	r3, #0
 800066a:	d100      	bne.n	800066e <LL_EXTI_Init+0x1a>
 800066c:	e068      	b.n	8000740 <LL_EXTI_Init+0xec>
  {
    assert_param(IS_LL_EXTI_TRIGGER(EXTI_InitStruct->Trigger));

    /* Configure EXTI Lines in range from 0 to 31 */
    if (EXTI_InitStruct->Line_0_31 != LL_EXTI_LINE_NONE)
 800066e:	687b      	ldr	r3, [r7, #4]
 8000670:	681b      	ldr	r3, [r3, #0]
 8000672:	2b00      	cmp	r3, #0
 8000674:	d100      	bne.n	8000678 <LL_EXTI_Init+0x24>
 8000676:	e06d      	b.n	8000754 <LL_EXTI_Init+0x100>
    {
      switch (EXTI_InitStruct->Mode)
 8000678:	687b      	ldr	r3, [r7, #4]
 800067a:	795b      	ldrb	r3, [r3, #5]
 800067c:	2b02      	cmp	r3, #2
 800067e:	d01b      	beq.n	80006b8 <LL_EXTI_Init+0x64>
 8000680:	dc25      	bgt.n	80006ce <LL_EXTI_Init+0x7a>
 8000682:	2b00      	cmp	r3, #0
 8000684:	d002      	beq.n	800068c <LL_EXTI_Init+0x38>
 8000686:	2b01      	cmp	r3, #1
 8000688:	d00b      	beq.n	80006a2 <LL_EXTI_Init+0x4e>
 800068a:	e020      	b.n	80006ce <LL_EXTI_Init+0x7a>
      {
        case LL_EXTI_MODE_IT:
          /* First Disable Event on provided Lines */
          LL_EXTI_DisableEvent_0_31(EXTI_InitStruct->Line_0_31);
 800068c:	687b      	ldr	r3, [r7, #4]
 800068e:	681b      	ldr	r3, [r3, #0]
 8000690:	0018      	movs	r0, r3
 8000692:	f7ff ff89 	bl	80005a8 <LL_EXTI_DisableEvent_0_31>
          /* Then Enable IT on provided Lines */
          LL_EXTI_EnableIT_0_31(EXTI_InitStruct->Line_0_31);
 8000696:	687b      	ldr	r3, [r7, #4]
 8000698:	681b      	ldr	r3, [r3, #0]
 800069a:	0018      	movs	r0, r3
 800069c:	f7ff ff52 	bl	8000544 <LL_EXTI_EnableIT_0_31>
          break;
 80006a0:	e01a      	b.n	80006d8 <LL_EXTI_Init+0x84>
        case LL_EXTI_MODE_EVENT:
          /* First Disable IT on provided Lines */
          LL_EXTI_DisableIT_0_31(EXTI_InitStruct->Line_0_31);
 80006a2:	687b      	ldr	r3, [r7, #4]
 80006a4:	681b      	ldr	r3, [r3, #0]
 80006a6:	0018      	movs	r0, r3
 80006a8:	f7ff ff5c 	bl	8000564 <LL_EXTI_DisableIT_0_31>
          /* Then Enable Event on provided Lines */
          LL_EXTI_EnableEvent_0_31(EXTI_InitStruct->Line_0_31);
 80006ac:	687b      	ldr	r3, [r7, #4]
 80006ae:	681b      	ldr	r3, [r3, #0]
 80006b0:	0018      	movs	r0, r3
 80006b2:	f7ff ff69 	bl	8000588 <LL_EXTI_EnableEvent_0_31>
          break;
 80006b6:	e00f      	b.n	80006d8 <LL_EXTI_Init+0x84>
        case LL_EXTI_MODE_IT_EVENT:
          /* Directly Enable IT & Event on provided Lines */
          LL_EXTI_EnableIT_0_31(EXTI_InitStruct->Line_0_31);
 80006b8:	687b      	ldr	r3, [r7, #4]
 80006ba:	681b      	ldr	r3, [r3, #0]
 80006bc:	0018      	movs	r0, r3
 80006be:	f7ff ff41 	bl	8000544 <LL_EXTI_EnableIT_0_31>
          LL_EXTI_EnableEvent_0_31(EXTI_InitStruct->Line_0_31);
 80006c2:	687b      	ldr	r3, [r7, #4]
 80006c4:	681b      	ldr	r3, [r3, #0]
 80006c6:	0018      	movs	r0, r3
 80006c8:	f7ff ff5e 	bl	8000588 <LL_EXTI_EnableEvent_0_31>
          break;
 80006cc:	e004      	b.n	80006d8 <LL_EXTI_Init+0x84>
        default:
          status = ERROR;
 80006ce:	230f      	movs	r3, #15
 80006d0:	18fb      	adds	r3, r7, r3
 80006d2:	2201      	movs	r2, #1
 80006d4:	701a      	strb	r2, [r3, #0]
          break;
 80006d6:	46c0      	nop			@ (mov r8, r8)
      }
      if (EXTI_InitStruct->Trigger != LL_EXTI_TRIGGER_NONE)
 80006d8:	687b      	ldr	r3, [r7, #4]
 80006da:	799b      	ldrb	r3, [r3, #6]
 80006dc:	2b00      	cmp	r3, #0
 80006de:	d039      	beq.n	8000754 <LL_EXTI_Init+0x100>
      {
        switch (EXTI_InitStruct->Trigger)
 80006e0:	687b      	ldr	r3, [r7, #4]
 80006e2:	799b      	ldrb	r3, [r3, #6]
 80006e4:	2b03      	cmp	r3, #3
 80006e6:	d01b      	beq.n	8000720 <LL_EXTI_Init+0xcc>
 80006e8:	dc25      	bgt.n	8000736 <LL_EXTI_Init+0xe2>
 80006ea:	2b01      	cmp	r3, #1
 80006ec:	d002      	beq.n	80006f4 <LL_EXTI_Init+0xa0>
 80006ee:	2b02      	cmp	r3, #2
 80006f0:	d00b      	beq.n	800070a <LL_EXTI_Init+0xb6>
 80006f2:	e020      	b.n	8000736 <LL_EXTI_Init+0xe2>
        {
          case LL_EXTI_TRIGGER_RISING:
            /* First Disable Falling Trigger on provided Lines */
            LL_EXTI_DisableFallingTrig_0_31(EXTI_InitStruct->Line_0_31);
 80006f4:	687b      	ldr	r3, [r7, #4]
 80006f6:	681b      	ldr	r3, [r3, #0]
 80006f8:	0018      	movs	r0, r3
 80006fa:	f7ff ff99 	bl	8000630 <LL_EXTI_DisableFallingTrig_0_31>
            /* Then Enable Rising Trigger on provided Lines */
            LL_EXTI_EnableRisingTrig_0_31(EXTI_InitStruct->Line_0_31);
 80006fe:	687b      	ldr	r3, [r7, #4]
 8000700:	681b      	ldr	r3, [r3, #0]
 8000702:	0018      	movs	r0, r3
 8000704:	f7ff ff62 	bl	80005cc <LL_EXTI_EnableRisingTrig_0_31>
            break;
 8000708:	e024      	b.n	8000754 <LL_EXTI_Init+0x100>
          case LL_EXTI_TRIGGER_FALLING:
            /* First Disable Rising Trigger on provided Lines */
            LL_EXTI_DisableRisingTrig_0_31(EXTI_InitStruct->Line_0_31);
 800070a:	687b      	ldr	r3, [r7, #4]
 800070c:	681b      	ldr	r3, [r3, #0]
 800070e:	0018      	movs	r0, r3
 8000710:	f7ff ff6c 	bl	80005ec <LL_EXTI_DisableRisingTrig_0_31>
            /* Then Enable Falling Trigger on provided Lines */
            LL_EXTI_EnableFallingTrig_0_31(EXTI_InitStruct->Line_0_31);
 8000714:	687b      	ldr	r3, [r7, #4]
 8000716:	681b      	ldr	r3, [r3, #0]
 8000718:	0018      	movs	r0, r3
 800071a:	f7ff ff79 	bl	8000610 <LL_EXTI_EnableFallingTrig_0_31>
            break;
 800071e:	e019      	b.n	8000754 <LL_EXTI_Init+0x100>
          case LL_EXTI_TRIGGER_RISING_FALLING:
            LL_EXTI_EnableRisingTrig_0_31(EXTI_InitStruct->Line_0_31);
 8000720:	687b      	ldr	r3, [r7, #4]
 8000722:	681b      	ldr	r3, [r3, #0]
 8000724:	0018      	movs	r0, r3
 8000726:	f7ff ff51 	bl	80005cc <LL_EXTI_EnableRisingTrig_0_31>
            LL_EXTI_EnableFallingTrig_0_31(EXTI_InitStruct->Line_0_31);
 800072a:	687b      	ldr	r3, [r7, #4]
 800072c:	681b      	ldr	r3, [r3, #0]
 800072e:	0018      	movs	r0, r3
 8000730:	f7ff ff6e 	bl	8000610 <LL_EXTI_EnableFallingTrig_0_31>
            break;
 8000734:	e00e      	b.n	8000754 <LL_EXTI_Init+0x100>
          default:
            status = ERROR;
 8000736:	230f      	movs	r3, #15
 8000738:	18fb      	adds	r3, r7, r3
 800073a:	2201      	movs	r2, #1
 800073c:	701a      	strb	r2, [r3, #0]
            break;
 800073e:	e009      	b.n	8000754 <LL_EXTI_Init+0x100>
  }
  /* DISABLE LineCommand */
  else
  {
    /* De-configure EXTI Lines in range from 0 to 31 */
    LL_EXTI_DisableIT_0_31(EXTI_InitStruct->Line_0_31);
 8000740:	687b      	ldr	r3, [r7, #4]
 8000742:	681b      	ldr	r3, [r3, #0]
 8000744:	0018      	movs	r0, r3
 8000746:	f7ff ff0d 	bl	8000564 <LL_EXTI_DisableIT_0_31>
    LL_EXTI_DisableEvent_0_31(EXTI_InitStruct->Line_0_31);
 800074a:	687b      	ldr	r3, [r7, #4]
 800074c:	681b      	ldr	r3, [r3, #0]
 800074e:	0018      	movs	r0, r3
 8000750:	f7ff ff2a 	bl	80005a8 <LL_EXTI_DisableEvent_0_31>
  }
  return status;
 8000754:	230f      	movs	r3, #15
 8000756:	18fb      	adds	r3, r7, r3
 8000758:	781b      	ldrb	r3, [r3, #0]
}
 800075a:	0018      	movs	r0, r3
 800075c:	46bd      	mov	sp, r7
 800075e:	b004      	add	sp, #16
 8000760:	bd80      	pop	{r7, pc}

08000762 <LL_GPIO_SetPinMode>:
{
 8000762:	b580      	push	{r7, lr}
 8000764:	b084      	sub	sp, #16
 8000766:	af00      	add	r7, sp, #0
 8000768:	60f8      	str	r0, [r7, #12]
 800076a:	60b9      	str	r1, [r7, #8]
 800076c:	607a      	str	r2, [r7, #4]
  MODIFY_REG(GPIOx->MODER, ((Pin * Pin) * GPIO_MODER_MODER0), ((Pin * Pin) * Mode));
 800076e:	68fb      	ldr	r3, [r7, #12]
 8000770:	6819      	ldr	r1, [r3, #0]
 8000772:	68bb      	ldr	r3, [r7, #8]
 8000774:	435b      	muls	r3, r3
 8000776:	001a      	movs	r2, r3
 8000778:	0013      	movs	r3, r2
 800077a:	005b      	lsls	r3, r3, #1
 800077c:	189b      	adds	r3, r3, r2
 800077e:	43db      	mvns	r3, r3
 8000780:	400b      	ands	r3, r1
 8000782:	001a      	movs	r2, r3
 8000784:	68bb      	ldr	r3, [r7, #8]
 8000786:	435b      	muls	r3, r3
 8000788:	6879      	ldr	r1, [r7, #4]
 800078a:	434b      	muls	r3, r1
 800078c:	431a      	orrs	r2, r3
 800078e:	68fb      	ldr	r3, [r7, #12]
 8000790:	601a      	str	r2, [r3, #0]
}
 8000792:	46c0      	nop			@ (mov r8, r8)
 8000794:	46bd      	mov	sp, r7
 8000796:	b004      	add	sp, #16
 8000798:	bd80      	pop	{r7, pc}

0800079a <LL_GPIO_SetPinOutputType>:
{
 800079a:	b580      	push	{r7, lr}
 800079c:	b084      	sub	sp, #16
 800079e:	af00      	add	r7, sp, #0
 80007a0:	60f8      	str	r0, [r7, #12]
 80007a2:	60b9      	str	r1, [r7, #8]
 80007a4:	607a      	str	r2, [r7, #4]
  MODIFY_REG(GPIOx->OTYPER, PinMask, (PinMask * OutputType));
 80007a6:	68fb      	ldr	r3, [r7, #12]
 80007a8:	685b      	ldr	r3, [r3, #4]
 80007aa:	68ba      	ldr	r2, [r7, #8]
 80007ac:	43d2      	mvns	r2, r2
 80007ae:	401a      	ands	r2, r3
 80007b0:	68bb      	ldr	r3, [r7, #8]
 80007b2:	6879      	ldr	r1, [r7, #4]
 80007b4:	434b      	muls	r3, r1
 80007b6:	431a      	orrs	r2, r3
 80007b8:	68fb      	ldr	r3, [r7, #12]
 80007ba:	605a      	str	r2, [r3, #4]
}
 80007bc:	46c0      	nop			@ (mov r8, r8)
 80007be:	46bd      	mov	sp, r7
 80007c0:	b004      	add	sp, #16
 80007c2:	bd80      	pop	{r7, pc}

080007c4 <LL_GPIO_SetPinSpeed>:
{
 80007c4:	b580      	push	{r7, lr}
 80007c6:	b084      	sub	sp, #16
 80007c8:	af00      	add	r7, sp, #0
 80007ca:	60f8      	str	r0, [r7, #12]
 80007cc:	60b9      	str	r1, [r7, #8]
 80007ce:	607a      	str	r2, [r7, #4]
  MODIFY_REG(GPIOx->OSPEEDR, ((Pin * Pin) * GPIO_OSPEEDR_OSPEEDR0), ((Pin * Pin) * Speed));
 80007d0:	68fb      	ldr	r3, [r7, #12]
 80007d2:	6899      	ldr	r1, [r3, #8]
 80007d4:	68bb      	ldr	r3, [r7, #8]
 80007d6:	435b      	muls	r3, r3
 80007d8:	001a      	movs	r2, r3
 80007da:	0013      	movs	r3, r2
 80007dc:	005b      	lsls	r3, r3, #1
 80007de:	189b      	adds	r3, r3, r2
 80007e0:	43db      	mvns	r3, r3
 80007e2:	400b      	ands	r3, r1
 80007e4:	001a      	movs	r2, r3
 80007e6:	68bb      	ldr	r3, [r7, #8]
 80007e8:	435b      	muls	r3, r3
 80007ea:	6879      	ldr	r1, [r7, #4]
 80007ec:	434b      	muls	r3, r1
 80007ee:	431a      	orrs	r2, r3
 80007f0:	68fb      	ldr	r3, [r7, #12]
 80007f2:	609a      	str	r2, [r3, #8]
}
 80007f4:	46c0      	nop			@ (mov r8, r8)
 80007f6:	46bd      	mov	sp, r7
 80007f8:	b004      	add	sp, #16
 80007fa:	bd80      	pop	{r7, pc}

080007fc <LL_GPIO_SetPinPull>:
{
 80007fc:	b580      	push	{r7, lr}
 80007fe:	b084      	sub	sp, #16
 8000800:	af00      	add	r7, sp, #0
 8000802:	60f8      	str	r0, [r7, #12]
 8000804:	60b9      	str	r1, [r7, #8]
 8000806:	607a      	str	r2, [r7, #4]
  MODIFY_REG(GPIOx->PUPDR, ((Pin * Pin) * GPIO_PUPDR_PUPDR0), ((Pin * Pin) * Pull));
 8000808:	68fb      	ldr	r3, [r7, #12]
 800080a:	68d9      	ldr	r1, [r3, #12]
 800080c:	68bb      	ldr	r3, [r7, #8]
 800080e:	435b      	muls	r3, r3
 8000810:	001a      	movs	r2, r3
 8000812:	0013      	movs	r3, r2
 8000814:	005b      	lsls	r3, r3, #1
 8000816:	189b      	adds	r3, r3, r2
 8000818:	43db      	mvns	r3, r3
 800081a:	400b      	ands	r3, r1
 800081c:	001a      	movs	r2, r3
 800081e:	68bb      	ldr	r3, [r7, #8]
 8000820:	435b      	muls	r3, r3
 8000822:	6879      	ldr	r1, [r7, #4]
 8000824:	434b      	muls	r3, r1
 8000826:	431a      	orrs	r2, r3
 8000828:	68fb      	ldr	r3, [r7, #12]
 800082a:	60da      	str	r2, [r3, #12]
}
 800082c:	46c0      	nop			@ (mov r8, r8)
 800082e:	46bd      	mov	sp, r7
 8000830:	b004      	add	sp, #16
 8000832:	bd80      	pop	{r7, pc}

08000834 <LL_GPIO_SetAFPin_0_7>:
{
 8000834:	b580      	push	{r7, lr}
 8000836:	b084      	sub	sp, #16
 8000838:	af00      	add	r7, sp, #0
 800083a:	60f8      	str	r0, [r7, #12]
 800083c:	60b9      	str	r1, [r7, #8]
 800083e:	607a      	str	r2, [r7, #4]
  MODIFY_REG(GPIOx->AFR[0], ((((Pin * Pin) * Pin) * Pin) * GPIO_AFRL_AFSEL0),
 8000840:	68fb      	ldr	r3, [r7, #12]
 8000842:	6a19      	ldr	r1, [r3, #32]
 8000844:	68bb      	ldr	r3, [r7, #8]
 8000846:	435b      	muls	r3, r3
 8000848:	68ba      	ldr	r2, [r7, #8]
 800084a:	4353      	muls	r3, r2
 800084c:	68ba      	ldr	r2, [r7, #8]
 800084e:	435a      	muls	r2, r3
 8000850:	0013      	movs	r3, r2
 8000852:	011b      	lsls	r3, r3, #4
 8000854:	1a9b      	subs	r3, r3, r2
 8000856:	43db      	mvns	r3, r3
 8000858:	400b      	ands	r3, r1
 800085a:	001a      	movs	r2, r3
 800085c:	68bb      	ldr	r3, [r7, #8]
 800085e:	435b      	muls	r3, r3
 8000860:	68b9      	ldr	r1, [r7, #8]
 8000862:	434b      	muls	r3, r1
 8000864:	68b9      	ldr	r1, [r7, #8]
 8000866:	434b      	muls	r3, r1
 8000868:	6879      	ldr	r1, [r7, #4]
 800086a:	434b      	muls	r3, r1
 800086c:	431a      	orrs	r2, r3
 800086e:	68fb      	ldr	r3, [r7, #12]
 8000870:	621a      	str	r2, [r3, #32]
}
 8000872:	46c0      	nop			@ (mov r8, r8)
 8000874:	46bd      	mov	sp, r7
 8000876:	b004      	add	sp, #16
 8000878:	bd80      	pop	{r7, pc}

0800087a <LL_GPIO_SetAFPin_8_15>:
{
 800087a:	b580      	push	{r7, lr}
 800087c:	b084      	sub	sp, #16
 800087e:	af00      	add	r7, sp, #0
 8000880:	60f8      	str	r0, [r7, #12]
 8000882:	60b9      	str	r1, [r7, #8]
 8000884:	607a      	str	r2, [r7, #4]
  MODIFY_REG(GPIOx->AFR[1], (((((Pin >> 8U) * (Pin >> 8U)) * (Pin >> 8U)) * (Pin >> 8U)) * GPIO_AFRH_AFSEL8),
 8000886:	68fb      	ldr	r3, [r7, #12]
 8000888:	6a59      	ldr	r1, [r3, #36]	@ 0x24
 800088a:	68bb      	ldr	r3, [r7, #8]
 800088c:	0a1b      	lsrs	r3, r3, #8
 800088e:	68ba      	ldr	r2, [r7, #8]
 8000890:	0a12      	lsrs	r2, r2, #8
 8000892:	4353      	muls	r3, r2
 8000894:	68ba      	ldr	r2, [r7, #8]
 8000896:	0a12      	lsrs	r2, r2, #8
 8000898:	4353      	muls	r3, r2
 800089a:	68ba      	ldr	r2, [r7, #8]
 800089c:	0a12      	lsrs	r2, r2, #8
 800089e:	435a      	muls	r2, r3
 80008a0:	0013      	movs	r3, r2
 80008a2:	011b      	lsls	r3, r3, #4
 80008a4:	1a9b      	subs	r3, r3, r2
 80008a6:	43db      	mvns	r3, r3
 80008a8:	400b      	ands	r3, r1
 80008aa:	001a      	movs	r2, r3
 80008ac:	68bb      	ldr	r3, [r7, #8]
 80008ae:	0a1b      	lsrs	r3, r3, #8
 80008b0:	68b9      	ldr	r1, [r7, #8]
 80008b2:	0a09      	lsrs	r1, r1, #8
 80008b4:	434b      	muls	r3, r1
 80008b6:	68b9      	ldr	r1, [r7, #8]
 80008b8:	0a09      	lsrs	r1, r1, #8
 80008ba:	434b      	muls	r3, r1
 80008bc:	68b9      	ldr	r1, [r7, #8]
 80008be:	0a09      	lsrs	r1, r1, #8
 80008c0:	434b      	muls	r3, r1
 80008c2:	6879      	ldr	r1, [r7, #4]
 80008c4:	434b      	muls	r3, r1
 80008c6:	431a      	orrs	r2, r3
 80008c8:	68fb      	ldr	r3, [r7, #12]
 80008ca:	625a      	str	r2, [r3, #36]	@ 0x24
}
 80008cc:	46c0      	nop			@ (mov r8, r8)
 80008ce:	46bd      	mov	sp, r7
 80008d0:	b004      	add	sp, #16
 80008d2:	bd80      	pop	{r7, pc}

080008d4 <LL_GPIO_Init>:
  * @retval An ErrorStatus enumeration value:
  *          - SUCCESS: GPIO registers are initialized according to GPIO_InitStruct content
  *          - ERROR:   Not applicable
  */
ErrorStatus LL_GPIO_Init(GPIO_TypeDef *GPIOx, LL_GPIO_InitTypeDef *GPIO_InitStruct)
{
 80008d4:	b580      	push	{r7, lr}
 80008d6:	b084      	sub	sp, #16
 80008d8:	af00      	add	r7, sp, #0
 80008da:	6078      	str	r0, [r7, #4]
 80008dc:	6039      	str	r1, [r7, #0]
  assert_param(IS_LL_GPIO_MODE(GPIO_InitStruct->Mode));
  assert_param(IS_LL_GPIO_PULL(GPIO_InitStruct->Pull));

  /* ------------------------- Configure the port pins ---------------- */
  /* Initialize  pinpos on first pin set */
  pinpos = 0;
 80008de:	2300      	movs	r3, #0
 80008e0:	60fb      	str	r3, [r7, #12]

  /* Configure the port pins */
  while (((GPIO_InitStruct->Pin) >> pinpos) != 0x00u)
 80008e2:	e048      	b.n	8000976 <LL_GPIO_Init+0xa2>
  {
    /* Get current io position */
    currentpin = (GPIO_InitStruct->Pin) & (0x00000001uL << pinpos);
 80008e4:	683b      	ldr	r3, [r7, #0]
 80008e6:	681b      	ldr	r3, [r3, #0]
 80008e8:	2101      	movs	r1, #1
 80008ea:	68fa      	ldr	r2, [r7, #12]
 80008ec:	4091      	lsls	r1, r2
 80008ee:	000a      	movs	r2, r1
 80008f0:	4013      	ands	r3, r2
 80008f2:	60bb      	str	r3, [r7, #8]

    if (currentpin != 0x00u)
 80008f4:	68bb      	ldr	r3, [r7, #8]
 80008f6:	2b00      	cmp	r3, #0
 80008f8:	d03a      	beq.n	8000970 <LL_GPIO_Init+0x9c>
    {
      if ((GPIO_InitStruct->Mode == LL_GPIO_MODE_OUTPUT) || (GPIO_InitStruct->Mode == LL_GPIO_MODE_ALTERNATE))
 80008fa:	683b      	ldr	r3, [r7, #0]
 80008fc:	685b      	ldr	r3, [r3, #4]
 80008fe:	2b01      	cmp	r3, #1
 8000900:	d003      	beq.n	800090a <LL_GPIO_Init+0x36>
 8000902:	683b      	ldr	r3, [r7, #0]
 8000904:	685b      	ldr	r3, [r3, #4]
 8000906:	2b02      	cmp	r3, #2
 8000908:	d10e      	bne.n	8000928 <LL_GPIO_Init+0x54>
      {
        /* Check Speed mode parameters */
        assert_param(IS_LL_GPIO_SPEED(GPIO_InitStruct->Speed));

        /* Speed mode configuration */
        LL_GPIO_SetPinSpeed(GPIOx, currentpin, GPIO_InitStruct->Speed);
 800090a:	683b      	ldr	r3, [r7, #0]
 800090c:	689a      	ldr	r2, [r3, #8]
 800090e:	68b9      	ldr	r1, [r7, #8]
 8000910:	687b      	ldr	r3, [r7, #4]
 8000912:	0018      	movs	r0, r3
 8000914:	f7ff ff56 	bl	80007c4 <LL_GPIO_SetPinSpeed>

        /* Check Output mode parameters */
        assert_param(IS_LL_GPIO_OUTPUT_TYPE(GPIO_InitStruct->OutputType));

        /* Output mode configuration*/
        LL_GPIO_SetPinOutputType(GPIOx, GPIO_InitStruct->Pin, GPIO_InitStruct->OutputType);
 8000918:	683b      	ldr	r3, [r7, #0]
 800091a:	6819      	ldr	r1, [r3, #0]
 800091c:	683b      	ldr	r3, [r7, #0]
 800091e:	68da      	ldr	r2, [r3, #12]
 8000920:	687b      	ldr	r3, [r7, #4]
 8000922:	0018      	movs	r0, r3
 8000924:	f7ff ff39 	bl	800079a <LL_GPIO_SetPinOutputType>
      }

      /* Pull-up Pull down resistor configuration*/
      LL_GPIO_SetPinPull(GPIOx, currentpin, GPIO_InitStruct->Pull);
 8000928:	683b      	ldr	r3, [r7, #0]
 800092a:	691a      	ldr	r2, [r3, #16]
 800092c:	68b9      	ldr	r1, [r7, #8]
 800092e:	687b      	ldr	r3, [r7, #4]
 8000930:	0018      	movs	r0, r3
 8000932:	f7ff ff63 	bl	80007fc <LL_GPIO_SetPinPull>

      if (GPIO_InitStruct->Mode == LL_GPIO_MODE_ALTERNATE)
 8000936:	683b      	ldr	r3, [r7, #0]
 8000938:	685b      	ldr	r3, [r3, #4]
 800093a:	2b02      	cmp	r3, #2
 800093c:	d111      	bne.n	8000962 <LL_GPIO_Init+0x8e>
      {
        /* Check Alternate parameter */
        assert_param(IS_LL_GPIO_ALTERNATE(GPIO_InitStruct->Alternate));

        /* Speed mode configuration */
        if (currentpin < LL_GPIO_PIN_8)
 800093e:	68bb      	ldr	r3, [r7, #8]
 8000940:	2bff      	cmp	r3, #255	@ 0xff
 8000942:	d807      	bhi.n	8000954 <LL_GPIO_Init+0x80>
        {
          LL_GPIO_SetAFPin_0_7(GPIOx, currentpin, GPIO_InitStruct->Alternate);
 8000944:	683b      	ldr	r3, [r7, #0]
 8000946:	695a      	ldr	r2, [r3, #20]
 8000948:	68b9      	ldr	r1, [r7, #8]
 800094a:	687b      	ldr	r3, [r7, #4]
 800094c:	0018      	movs	r0, r3
 800094e:	f7ff ff71 	bl	8000834 <LL_GPIO_SetAFPin_0_7>
 8000952:	e006      	b.n	8000962 <LL_GPIO_Init+0x8e>
        }
        else
        {
          LL_GPIO_SetAFPin_8_15(GPIOx, currentpin, GPIO_InitStruct->Alternate);
 8000954:	683b      	ldr	r3, [r7, #0]
 8000956:	695a      	ldr	r2, [r3, #20]
 8000958:	68b9      	ldr	r1, [r7, #8]
 800095a:	687b      	ldr	r3, [r7, #4]
 800095c:	0018      	movs	r0, r3
 800095e:	f7ff ff8c 	bl	800087a <LL_GPIO_SetAFPin_8_15>
        }
      }

      /* Pin Mode configuration */
      LL_GPIO_SetPinMode(GPIOx, currentpin, GPIO_InitStruct->Mode);
 8000962:	683b      	ldr	r3, [r7, #0]
 8000964:	685a      	ldr	r2, [r3, #4]
 8000966:	68b9      	ldr	r1, [r7, #8]
 8000968:	687b      	ldr	r3, [r7, #4]
 800096a:	0018      	movs	r0, r3
 800096c:	f7ff fef9 	bl	8000762 <LL_GPIO_SetPinMode>
    }
    pinpos++;
 8000970:	68fb      	ldr	r3, [r7, #12]
 8000972:	3301      	adds	r3, #1
 8000974:	60fb      	str	r3, [r7, #12]
  while (((GPIO_InitStruct->Pin) >> pinpos) != 0x00u)
 8000976:	683b      	ldr	r3, [r7, #0]
 8000978:	681a      	ldr	r2, [r3, #0]
 800097a:	68fb      	ldr	r3, [r7, #12]
 800097c:	40da      	lsrs	r2, r3
 800097e:	1e13      	subs	r3, r2, #0
 8000980:	d1b0      	bne.n	80008e4 <LL_GPIO_Init+0x10>
  }

  return (SUCCESS);
 8000982:	2300      	movs	r3, #0
}
 8000984:	0018      	movs	r0, r3
 8000986:	46bd      	mov	sp, r7
 8000988:	b004      	add	sp, #16
 800098a:	bd80      	pop	{r7, pc}

0800098c <LL_RCC_HSI_IsReady>:
{
 800098c:	b580      	push	{r7, lr}
 800098e:	af00      	add	r7, sp, #0
  return (READ_BIT(RCC->CR, RCC_CR_HSIRDY) == (RCC_CR_HSIRDY));
 8000990:	4b05      	ldr	r3, [pc, #20]	@ (80009a8 <LL_RCC_HSI_IsReady+0x1c>)
 8000992:	681b      	ldr	r3, [r3, #0]
 8000994:	2202      	movs	r2, #2
 8000996:	4013      	ands	r3, r2
 8000998:	3b02      	subs	r3, #2
 800099a:	425a      	negs	r2, r3
 800099c:	4153      	adcs	r3, r2
 800099e:	b2db      	uxtb	r3, r3
}
 80009a0:	0018      	movs	r0, r3
 80009a2:	46bd      	mov	sp, r7
 80009a4:	bd80      	pop	{r7, pc}
 80009a6:	46c0      	nop			@ (mov r8, r8)
 80009a8:	40021000 	.word	0x40021000

080009ac <LL_RCC_LSE_IsReady>:
{
 80009ac:	b580      	push	{r7, lr}
 80009ae:	af00      	add	r7, sp, #0
  return (READ_BIT(RCC->BDCR, RCC_BDCR_LSERDY) == (RCC_BDCR_LSERDY));
 80009b0:	4b05      	ldr	r3, [pc, #20]	@ (80009c8 <LL_RCC_LSE_IsReady+0x1c>)
 80009b2:	6a1b      	ldr	r3, [r3, #32]
 80009b4:	2202      	movs	r2, #2
 80009b6:	4013      	ands	r3, r2
 80009b8:	3b02      	subs	r3, #2
 80009ba:	425a      	negs	r2, r3
 80009bc:	4153      	adcs	r3, r2
 80009be:	b2db      	uxtb	r3, r3
}
 80009c0:	0018      	movs	r0, r3
 80009c2:	46bd      	mov	sp, r7
 80009c4:	bd80      	pop	{r7, pc}
 80009c6:	46c0      	nop			@ (mov r8, r8)
 80009c8:	40021000 	.word	0x40021000

080009cc <LL_RCC_GetSysClkSource>:
{
 80009cc:	b580      	push	{r7, lr}
 80009ce:	af00      	add	r7, sp, #0
  return (uint32_t)(READ_BIT(RCC->CFGR, RCC_CFGR_SWS));
 80009d0:	4b03      	ldr	r3, [pc, #12]	@ (80009e0 <LL_RCC_GetSysClkSource+0x14>)
 80009d2:	685b      	ldr	r3, [r3, #4]
 80009d4:	220c      	movs	r2, #12
 80009d6:	4013      	ands	r3, r2
}
 80009d8:	0018      	movs	r0, r3
 80009da:	46bd      	mov	sp, r7
 80009dc:	bd80      	pop	{r7, pc}
 80009de:	46c0      	nop			@ (mov r8, r8)
 80009e0:	40021000 	.word	0x40021000

080009e4 <LL_RCC_GetAHBPrescaler>:
{
 80009e4:	b580      	push	{r7, lr}
 80009e6:	af00      	add	r7, sp, #0
  return (uint32_t)(READ_BIT(RCC->CFGR, RCC_CFGR_HPRE));
 80009e8:	4b03      	ldr	r3, [pc, #12]	@ (80009f8 <LL_RCC_GetAHBPrescaler+0x14>)
 80009ea:	685b      	ldr	r3, [r3, #4]
 80009ec:	22f0      	movs	r2, #240	@ 0xf0
 80009ee:	4013      	ands	r3, r2
}
 80009f0:	0018      	movs	r0, r3
 80009f2:	46bd      	mov	sp, r7
 80009f4:	bd80      	pop	{r7, pc}
 80009f6:	46c0      	nop			@ (mov r8, r8)
 80009f8:	40021000 	.word	0x40021000

080009fc <LL_RCC_GetAPB1Prescaler>:
{
 80009fc:	b580      	push	{r7, lr}
 80009fe:	af00      	add	r7, sp, #0
  return (uint32_t)(READ_BIT(RCC->CFGR, RCC_CFGR_PPRE));
 8000a00:	4b03      	ldr	r3, [pc, #12]	@ (8000a10 <LL_RCC_GetAPB1Prescaler+0x14>)
 8000a02:	685a      	ldr	r2, [r3, #4]
 8000a04:	23e0      	movs	r3, #224	@ 0xe0
 8000a06:	00db      	lsls	r3, r3, #3
 8000a08:	4013      	ands	r3, r2
}
 8000a0a:	0018      	movs	r0, r3
 8000a0c:	46bd      	mov	sp, r7
 8000a0e:	bd80      	pop	{r7, pc}
 8000a10:	40021000 	.word	0x40021000

08000a14 <LL_RCC_GetUSARTClockSource>:
{
 8000a14:	b580      	push	{r7, lr}
 8000a16:	b082      	sub	sp, #8
 8000a18:	af00      	add	r7, sp, #0
 8000a1a:	6078      	str	r0, [r7, #4]
  return (uint32_t)(READ_BIT(RCC->CFGR3, (RCC_CFGR3_USART1SW << USARTx)) | (USARTx << 24U));
 8000a1c:	4b06      	ldr	r3, [pc, #24]	@ (8000a38 <LL_RCC_GetUSARTClockSource+0x24>)
 8000a1e:	6b1b      	ldr	r3, [r3, #48]	@ 0x30
 8000a20:	2103      	movs	r1, #3
 8000a22:	687a      	ldr	r2, [r7, #4]
 8000a24:	4091      	lsls	r1, r2
 8000a26:	000a      	movs	r2, r1
 8000a28:	401a      	ands	r2, r3
 8000a2a:	687b      	ldr	r3, [r7, #4]
 8000a2c:	061b      	lsls	r3, r3, #24
 8000a2e:	4313      	orrs	r3, r2
}
 8000a30:	0018      	movs	r0, r3
 8000a32:	46bd      	mov	sp, r7
 8000a34:	b002      	add	sp, #8
 8000a36:	bd80      	pop	{r7, pc}
 8000a38:	40021000 	.word	0x40021000

08000a3c <LL_RCC_PLL_GetMainSource>:
  *         @arg @ref LL_RCC_PLLSOURCE_HSI48 (*)
  *
  *         (*) value not defined in all devices
  */
__STATIC_INLINE uint32_t LL_RCC_PLL_GetMainSource(void)
{
 8000a3c:	b580      	push	{r7, lr}
 8000a3e:	af00      	add	r7, sp, #0
  return (uint32_t)(READ_BIT(RCC->CFGR, RCC_CFGR_PLLSRC));
 8000a40:	4b03      	ldr	r3, [pc, #12]	@ (8000a50 <LL_RCC_PLL_GetMainSource+0x14>)
 8000a42:	685a      	ldr	r2, [r3, #4]
 8000a44:	2380      	movs	r3, #128	@ 0x80
 8000a46:	025b      	lsls	r3, r3, #9
 8000a48:	4013      	ands	r3, r2
}
 8000a4a:	0018      	movs	r0, r3
 8000a4c:	46bd      	mov	sp, r7
 8000a4e:	bd80      	pop	{r7, pc}
 8000a50:	40021000 	.word	0x40021000

08000a54 <LL_RCC_PLL_GetMultiplicator>:
  *         @arg @ref LL_RCC_PLL_MUL_14
  *         @arg @ref LL_RCC_PLL_MUL_15
  *         @arg @ref LL_RCC_PLL_MUL_16
  */
__STATIC_INLINE uint32_t LL_RCC_PLL_GetMultiplicator(void)
{
 8000a54:	b580      	push	{r7, lr}
 8000a56:	af00      	add	r7, sp, #0
  return (uint32_t)(READ_BIT(RCC->CFGR, RCC_CFGR_PLLMUL));
 8000a58:	4b03      	ldr	r3, [pc, #12]	@ (8000a68 <LL_RCC_PLL_GetMultiplicator+0x14>)
 8000a5a:	685a      	ldr	r2, [r3, #4]
 8000a5c:	23f0      	movs	r3, #240	@ 0xf0
 8000a5e:	039b      	lsls	r3, r3, #14
 8000a60:	4013      	ands	r3, r2
}
 8000a62:	0018      	movs	r0, r3
 8000a64:	46bd      	mov	sp, r7
 8000a66:	bd80      	pop	{r7, pc}
 8000a68:	40021000 	.word	0x40021000

08000a6c <LL_RCC_PLL_GetPrediv>:
  *         @arg @ref LL_RCC_PREDIV_DIV_14
  *         @arg @ref LL_RCC_PREDIV_DIV_15
  *         @arg @ref LL_RCC_PREDIV_DIV_16
  */
__STATIC_INLINE uint32_t LL_RCC_PLL_GetPrediv(void)
{
 8000a6c:	b580      	push	{r7, lr}
 8000a6e:	af00      	add	r7, sp, #0
  return (uint32_t)(READ_BIT(RCC->CFGR2, RCC_CFGR2_PREDIV));
 8000a70:	4b03      	ldr	r3, [pc, #12]	@ (8000a80 <LL_RCC_PLL_GetPrediv+0x14>)
 8000a72:	6adb      	ldr	r3, [r3, #44]	@ 0x2c
 8000a74:	220f      	movs	r2, #15
 8000a76:	4013      	ands	r3, r2
}
 8000a78:	0018      	movs	r0, r3
 8000a7a:	46bd      	mov	sp, r7
 8000a7c:	bd80      	pop	{r7, pc}
 8000a7e:	46c0      	nop			@ (mov r8, r8)
 8000a80:	40021000 	.word	0x40021000

08000a84 <LL_RCC_GetSystemClocksFreq>:
  *         configuration based on this function will be incorrect.
  * @param  RCC_Clocks pointer to a @ref LL_RCC_ClocksTypeDef structure which will hold the clocks frequencies
  * @retval None
  */
void LL_RCC_GetSystemClocksFreq(LL_RCC_ClocksTypeDef *RCC_Clocks)
{
 8000a84:	b580      	push	{r7, lr}
 8000a86:	b082      	sub	sp, #8
 8000a88:	af00      	add	r7, sp, #0
 8000a8a:	6078      	str	r0, [r7, #4]
  /* Get SYSCLK frequency */
  RCC_Clocks->SYSCLK_Frequency = RCC_GetSystemClockFreq();
 8000a8c:	f000 f85a 	bl	8000b44 <RCC_GetSystemClockFreq>
 8000a90:	0002      	movs	r2, r0
 8000a92:	687b      	ldr	r3, [r7, #4]
 8000a94:	601a      	str	r2, [r3, #0]

  /* HCLK clock frequency */
  RCC_Clocks->HCLK_Frequency   = RCC_GetHCLKClockFreq(RCC_Clocks->SYSCLK_Frequency);
 8000a96:	687b      	ldr	r3, [r7, #4]
 8000a98:	681b      	ldr	r3, [r3, #0]
 8000a9a:	0018      	movs	r0, r3
 8000a9c:	f000 f878 	bl	8000b90 <RCC_GetHCLKClockFreq>
 8000aa0:	0002      	movs	r2, r0
 8000aa2:	687b      	ldr	r3, [r7, #4]
 8000aa4:	605a      	str	r2, [r3, #4]

  /* PCLK1 clock frequency */
  RCC_Clocks->PCLK1_Frequency  = RCC_GetPCLK1ClockFreq(RCC_Clocks->HCLK_Frequency);
 8000aa6:	687b      	ldr	r3, [r7, #4]
 8000aa8:	685b      	ldr	r3, [r3, #4]
 8000aaa:	0018      	movs	r0, r3
 8000aac:	f000 f886 	bl	8000bbc <RCC_GetPCLK1ClockFreq>
 8000ab0:	0002      	movs	r2, r0
 8000ab2:	687b      	ldr	r3, [r7, #4]
 8000ab4:	609a      	str	r2, [r3, #8]
}
 8000ab6:	46c0      	nop			@ (mov r8, r8)
 8000ab8:	46bd      	mov	sp, r7
 8000aba:	b002      	add	sp, #8
 8000abc:	bd80      	pop	{r7, pc}
	...

08000ac0 <LL_RCC_GetUSARTClockFreq>:
  *         (*) value not defined in all devices.
  * @retval USART clock frequency (in Hz)
  *         @arg @ref LL_RCC_PERIPH_FREQUENCY_NO indicates that oscillator (HSI or LSE) is not ready
  */
uint32_t LL_RCC_GetUSARTClockFreq(uint32_t USARTxSource)
{
 8000ac0:	b580      	push	{r7, lr}
 8000ac2:	b084      	sub	sp, #16
 8000ac4:	af00      	add	r7, sp, #0
 8000ac6:	6078      	str	r0, [r7, #4]
  uint32_t usart_frequency = LL_RCC_PERIPH_FREQUENCY_NO;
 8000ac8:	2300      	movs	r3, #0
 8000aca:	60fb      	str	r3, [r7, #12]

  /* Check parameter */
  assert_param(IS_LL_RCC_USART_CLKSOURCE(USARTxSource));
#if defined(RCC_CFGR3_USART1SW)
  if (USARTxSource == LL_RCC_USART1_CLKSOURCE)
 8000acc:	687b      	ldr	r3, [r7, #4]
 8000ace:	2b00      	cmp	r3, #0
 8000ad0:	d130      	bne.n	8000b34 <LL_RCC_GetUSARTClockFreq+0x74>
  {
    /* USART1CLK clock frequency */
    switch (LL_RCC_GetUSARTClockSource(USARTxSource))
 8000ad2:	687b      	ldr	r3, [r7, #4]
 8000ad4:	0018      	movs	r0, r3
 8000ad6:	f7ff ff9d 	bl	8000a14 <LL_RCC_GetUSARTClockSource>
 8000ada:	0003      	movs	r3, r0
 8000adc:	2b03      	cmp	r3, #3
 8000ade:	d00a      	beq.n	8000af6 <LL_RCC_GetUSARTClockFreq+0x36>
 8000ae0:	d818      	bhi.n	8000b14 <LL_RCC_GetUSARTClockFreq+0x54>
 8000ae2:	2b01      	cmp	r3, #1
 8000ae4:	d002      	beq.n	8000aec <LL_RCC_GetUSARTClockFreq+0x2c>
 8000ae6:	2b02      	cmp	r3, #2
 8000ae8:	d00c      	beq.n	8000b04 <LL_RCC_GetUSARTClockFreq+0x44>
 8000aea:	e013      	b.n	8000b14 <LL_RCC_GetUSARTClockFreq+0x54>
    {
      case LL_RCC_USART1_CLKSOURCE_SYSCLK: /* USART1 Clock is System Clock */
        usart_frequency = RCC_GetSystemClockFreq();
 8000aec:	f000 f82a 	bl	8000b44 <RCC_GetSystemClockFreq>
 8000af0:	0003      	movs	r3, r0
 8000af2:	60fb      	str	r3, [r7, #12]
        break;
 8000af4:	e01e      	b.n	8000b34 <LL_RCC_GetUSARTClockFreq+0x74>

      case LL_RCC_USART1_CLKSOURCE_HSI:    /* USART1 Clock is HSI Osc. */
        if (LL_RCC_HSI_IsReady())
 8000af6:	f7ff ff49 	bl	800098c <LL_RCC_HSI_IsReady>
 8000afa:	1e03      	subs	r3, r0, #0
 8000afc:	d017      	beq.n	8000b2e <LL_RCC_GetUSARTClockFreq+0x6e>
        {
          usart_frequency = HSI_VALUE;
 8000afe:	4b10      	ldr	r3, [pc, #64]	@ (8000b40 <LL_RCC_GetUSARTClockFreq+0x80>)
 8000b00:	60fb      	str	r3, [r7, #12]
        }
        break;
 8000b02:	e014      	b.n	8000b2e <LL_RCC_GetUSARTClockFreq+0x6e>

      case LL_RCC_USART1_CLKSOURCE_LSE:    /* USART1 Clock is LSE Osc. */
        if (LL_RCC_LSE_IsReady())
 8000b04:	f7ff ff52 	bl	80009ac <LL_RCC_LSE_IsReady>
 8000b08:	1e03      	subs	r3, r0, #0
 8000b0a:	d012      	beq.n	8000b32 <LL_RCC_GetUSARTClockFreq+0x72>
        {
          usart_frequency = LSE_VALUE;
 8000b0c:	2380      	movs	r3, #128	@ 0x80
 8000b0e:	021b      	lsls	r3, r3, #8
 8000b10:	60fb      	str	r3, [r7, #12]
        }
        break;
 8000b12:	e00e      	b.n	8000b32 <LL_RCC_GetUSARTClockFreq+0x72>

      case LL_RCC_USART1_CLKSOURCE_PCLK1:  /* USART1 Clock is PCLK1 */
      default:
        usart_frequency = RCC_GetPCLK1ClockFreq(RCC_GetHCLKClockFreq(RCC_GetSystemClockFreq()));
 8000b14:	f000 f816 	bl	8000b44 <RCC_GetSystemClockFreq>
 8000b18:	0003      	movs	r3, r0
 8000b1a:	0018      	movs	r0, r3
 8000b1c:	f000 f838 	bl	8000b90 <RCC_GetHCLKClockFreq>
 8000b20:	0003      	movs	r3, r0
 8000b22:	0018      	movs	r0, r3
 8000b24:	f000 f84a 	bl	8000bbc <RCC_GetPCLK1ClockFreq>
 8000b28:	0003      	movs	r3, r0
 8000b2a:	60fb      	str	r3, [r7, #12]
        break;
 8000b2c:	e002      	b.n	8000b34 <LL_RCC_GetUSARTClockFreq+0x74>
        break;
 8000b2e:	46c0      	nop			@ (mov r8, r8)
 8000b30:	e000      	b.n	8000b34 <LL_RCC_GetUSARTClockFreq+0x74>
        break;
 8000b32:	46c0      	nop			@ (mov r8, r8)
        break;
    }
  }

#endif /* RCC_CFGR3_USART3SW */
  return usart_frequency;
 8000b34:	68fb      	ldr	r3, [r7, #12]
}
 8000b36:	0018      	movs	r0, r3
 8000b38:	46bd      	mov	sp, r7
 8000b3a:	b004      	add	sp, #16
 8000b3c:	bd80      	pop	{r7, pc}
 8000b3e:	46c0      	nop			@ (mov r8, r8)
 8000b40:	007a1200 	.word	0x007a1200

08000b44 <RCC_GetSystemClockFreq>:
/**
  * @brief  Return SYSTEM clock frequency
  * @retval SYSTEM clock frequency (in Hz)
  */
uint32_t RCC_GetSystemClockFreq(void)
{
 8000b44:	b580      	push	{r7, lr}
 8000b46:	b082      	sub	sp, #8
 8000b48:	af00      	add	r7, sp, #0
  uint32_t frequency = 0U;
 8000b4a:	2300      	movs	r3, #0
 8000b4c:	607b      	str	r3, [r7, #4]

  /* Get SYSCLK source -------------------------------------------------------*/
  switch (LL_RCC_GetSysClkSource())
 8000b4e:	f7ff ff3d 	bl	80009cc <LL_RCC_GetSysClkSource>
 8000b52:	0003      	movs	r3, r0
 8000b54:	2b08      	cmp	r3, #8
 8000b56:	d00b      	beq.n	8000b70 <RCC_GetSystemClockFreq+0x2c>
 8000b58:	d80f      	bhi.n	8000b7a <RCC_GetSystemClockFreq+0x36>
 8000b5a:	2b00      	cmp	r3, #0
 8000b5c:	d002      	beq.n	8000b64 <RCC_GetSystemClockFreq+0x20>
 8000b5e:	2b04      	cmp	r3, #4
 8000b60:	d003      	beq.n	8000b6a <RCC_GetSystemClockFreq+0x26>
 8000b62:	e00a      	b.n	8000b7a <RCC_GetSystemClockFreq+0x36>
  {
    case LL_RCC_SYS_CLKSOURCE_STATUS_HSI:  /* HSI used as system clock  source */
      frequency = HSI_VALUE;
 8000b64:	4b09      	ldr	r3, [pc, #36]	@ (8000b8c <RCC_GetSystemClockFreq+0x48>)
 8000b66:	607b      	str	r3, [r7, #4]
      break;
 8000b68:	e00a      	b.n	8000b80 <RCC_GetSystemClockFreq+0x3c>

    case LL_RCC_SYS_CLKSOURCE_STATUS_HSE:  /* HSE used as system clock  source */
      frequency = HSE_VALUE;
 8000b6a:	4b08      	ldr	r3, [pc, #32]	@ (8000b8c <RCC_GetSystemClockFreq+0x48>)
 8000b6c:	607b      	str	r3, [r7, #4]
      break;
 8000b6e:	e007      	b.n	8000b80 <RCC_GetSystemClockFreq+0x3c>

    case LL_RCC_SYS_CLKSOURCE_STATUS_PLL:  /* PLL used as system clock  source */
      frequency = RCC_PLL_GetFreqDomain_SYS();
 8000b70:	f000 f838 	bl	8000be4 <RCC_PLL_GetFreqDomain_SYS>
 8000b74:	0003      	movs	r3, r0
 8000b76:	607b      	str	r3, [r7, #4]
      break;
 8000b78:	e002      	b.n	8000b80 <RCC_GetSystemClockFreq+0x3c>
      frequency = HSI48_VALUE;
      break;
#endif /* RCC_HSI48_SUPPORT */

    default:
      frequency = HSI_VALUE;
 8000b7a:	4b04      	ldr	r3, [pc, #16]	@ (8000b8c <RCC_GetSystemClockFreq+0x48>)
 8000b7c:	607b      	str	r3, [r7, #4]
      break;
 8000b7e:	46c0      	nop			@ (mov r8, r8)
  }

  return frequency;
 8000b80:	687b      	ldr	r3, [r7, #4]
}
 8000b82:	0018      	movs	r0, r3
 8000b84:	46bd      	mov	sp, r7
 8000b86:	b002      	add	sp, #8
 8000b88:	bd80      	pop	{r7, pc}
 8000b8a:	46c0      	nop			@ (mov r8, r8)
 8000b8c:	007a1200 	.word	0x007a1200

08000b90 <RCC_GetHCLKClockFreq>:
  * @brief  Return HCLK clock frequency
  * @param  SYSCLK_Frequency SYSCLK clock frequency
  * @retval HCLK clock frequency (in Hz)
  */
uint32_t RCC_GetHCLKClockFreq(uint32_t SYSCLK_Frequency)
{
 8000b90:	b580      	push	{r7, lr}
 8000b92:	b082      	sub	sp, #8
 8000b94:	af00      	add	r7, sp, #0
 8000b96:	6078      	str	r0, [r7, #4]
  /* HCLK clock frequency */
  return __LL_RCC_CALC_HCLK_FREQ(SYSCLK_Frequency, LL_RCC_GetAHBPrescaler());
 8000b98:	f7ff ff24 	bl	80009e4 <LL_RCC_GetAHBPrescaler>
 8000b9c:	0003      	movs	r3, r0
 8000b9e:	091b      	lsrs	r3, r3, #4
 8000ba0:	220f      	movs	r2, #15
 8000ba2:	4013      	ands	r3, r2
 8000ba4:	4a04      	ldr	r2, [pc, #16]	@ (8000bb8 <RCC_GetHCLKClockFreq+0x28>)
 8000ba6:	5cd3      	ldrb	r3, [r2, r3]
 8000ba8:	001a      	movs	r2, r3
 8000baa:	687b      	ldr	r3, [r7, #4]
 8000bac:	40d3      	lsrs	r3, r2
}
 8000bae:	0018      	movs	r0, r3
 8000bb0:	46bd      	mov	sp, r7
 8000bb2:	b002      	add	sp, #8
 8000bb4:	bd80      	pop	{r7, pc}
 8000bb6:	46c0      	nop			@ (mov r8, r8)
 8000bb8:	08000f34 	.word	0x08000f34

08000bbc <RCC_GetPCLK1ClockFreq>:
  * @brief  Return PCLK1 clock frequency
  * @param  HCLK_Frequency HCLK clock frequency
  * @retval PCLK1 clock frequency (in Hz)
  */
uint32_t RCC_GetPCLK1ClockFreq(uint32_t HCLK_Frequency)
{
 8000bbc:	b580      	push	{r7, lr}
 8000bbe:	b082      	sub	sp, #8
 8000bc0:	af00      	add	r7, sp, #0
 8000bc2:	6078      	str	r0, [r7, #4]
  /* PCLK1 clock frequency */
  return __LL_RCC_CALC_PCLK1_FREQ(HCLK_Frequency, LL_RCC_GetAPB1Prescaler());
 8000bc4:	f7ff ff1a 	bl	80009fc <LL_RCC_GetAPB1Prescaler>
 8000bc8:	0003      	movs	r3, r0
 8000bca:	0a1b      	lsrs	r3, r3, #8
 8000bcc:	4a04      	ldr	r2, [pc, #16]	@ (8000be0 <RCC_GetPCLK1ClockFreq+0x24>)
 8000bce:	5cd3      	ldrb	r3, [r2, r3]
 8000bd0:	001a      	movs	r2, r3
 8000bd2:	687b      	ldr	r3, [r7, #4]
 8000bd4:	40d3      	lsrs	r3, r2
}
 8000bd6:	0018      	movs	r0, r3
 8000bd8:	46bd      	mov	sp, r7
 8000bda:	b002      	add	sp, #8
 8000bdc:	bd80      	pop	{r7, pc}
 8000bde:	46c0      	nop			@ (mov r8, r8)
 8000be0:	08000f44 	.word	0x08000f44

08000be4 <RCC_PLL_GetFreqDomain_SYS>:
/**
  * @brief  Return PLL clock frequency used for system domain
  * @retval PLL clock frequency (in Hz)
  */
uint32_t RCC_PLL_GetFreqDomain_SYS(void)
{
 8000be4:	b590      	push	{r4, r7, lr}
 8000be6:	b083      	sub	sp, #12
 8000be8:	af00      	add	r7, sp, #0
  uint32_t pllinputfreq = 0U, pllsource = 0U;
 8000bea:	2300      	movs	r3, #0
 8000bec:	607b      	str	r3, [r7, #4]
 8000bee:	2300      	movs	r3, #0
 8000bf0:	603b      	str	r3, [r7, #0]

  /* PLL_VCO = (HSE_VALUE or HSI_VALUE / PLL divider) * PLL Multiplicator */

  /* Get PLL source */
  pllsource = LL_RCC_PLL_GetMainSource();
 8000bf2:	f7ff ff23 	bl	8000a3c <LL_RCC_PLL_GetMainSource>
 8000bf6:	0003      	movs	r3, r0
 8000bf8:	603b      	str	r3, [r7, #0]

  switch (pllsource)
 8000bfa:	683b      	ldr	r3, [r7, #0]
 8000bfc:	2b00      	cmp	r3, #0
 8000bfe:	d005      	beq.n	8000c0c <RCC_PLL_GetFreqDomain_SYS+0x28>
 8000c00:	683a      	ldr	r2, [r7, #0]
 8000c02:	2380      	movs	r3, #128	@ 0x80
 8000c04:	025b      	lsls	r3, r3, #9
 8000c06:	429a      	cmp	r2, r3
 8000c08:	d003      	beq.n	8000c12 <RCC_PLL_GetFreqDomain_SYS+0x2e>
 8000c0a:	e005      	b.n	8000c18 <RCC_PLL_GetFreqDomain_SYS+0x34>
#if defined(RCC_PLLSRC_PREDIV1_SUPPORT)
    case LL_RCC_PLLSOURCE_HSI:       /* HSI used as PLL clock source */
      pllinputfreq = HSI_VALUE;
#else
    case LL_RCC_PLLSOURCE_HSI_DIV_2: /* HSI used as PLL clock source */
      pllinputfreq = HSI_VALUE / 2U;
 8000c0c:	4b0f      	ldr	r3, [pc, #60]	@ (8000c4c <RCC_PLL_GetFreqDomain_SYS+0x68>)
 8000c0e:	607b      	str	r3, [r7, #4]
#endif /* RCC_PLLSRC_PREDIV1_SUPPORT */
      break;
 8000c10:	e005      	b.n	8000c1e <RCC_PLL_GetFreqDomain_SYS+0x3a>
      pllinputfreq = HSI48_VALUE;
      break;
#endif /* RCC_HSI48_SUPPORT */

    case LL_RCC_PLLSOURCE_HSE:       /* HSE used as PLL clock source */
      pllinputfreq = HSE_VALUE;
 8000c12:	4b0f      	ldr	r3, [pc, #60]	@ (8000c50 <RCC_PLL_GetFreqDomain_SYS+0x6c>)
 8000c14:	607b      	str	r3, [r7, #4]
      break;
 8000c16:	e002      	b.n	8000c1e <RCC_PLL_GetFreqDomain_SYS+0x3a>

    default:
#if defined(RCC_PLLSRC_PREDIV1_SUPPORT)
      pllinputfreq = HSI_VALUE;
#else
      pllinputfreq = HSI_VALUE / 2U;
 8000c18:	4b0c      	ldr	r3, [pc, #48]	@ (8000c4c <RCC_PLL_GetFreqDomain_SYS+0x68>)
 8000c1a:	607b      	str	r3, [r7, #4]
#endif /* RCC_PLLSRC_PREDIV1_SUPPORT */
      break;
 8000c1c:	46c0      	nop			@ (mov r8, r8)
  }
#if defined(RCC_PLLSRC_PREDIV1_SUPPORT)
  return __LL_RCC_CALC_PLLCLK_FREQ(pllinputfreq, LL_RCC_PLL_GetMultiplicator(), LL_RCC_PLL_GetPrediv());
#else
  return __LL_RCC_CALC_PLLCLK_FREQ((pllinputfreq / (LL_RCC_PLL_GetPrediv() + 1U)), LL_RCC_PLL_GetMultiplicator());
 8000c1e:	f7ff ff25 	bl	8000a6c <LL_RCC_PLL_GetPrediv>
 8000c22:	0003      	movs	r3, r0
 8000c24:	3301      	adds	r3, #1
 8000c26:	0019      	movs	r1, r3
 8000c28:	6878      	ldr	r0, [r7, #4]
 8000c2a:	f7ff fa6d 	bl	8000108 <__udivsi3>
 8000c2e:	0003      	movs	r3, r0
 8000c30:	001c      	movs	r4, r3
 8000c32:	f7ff ff0f 	bl	8000a54 <LL_RCC_PLL_GetMultiplicator>
 8000c36:	0003      	movs	r3, r0
 8000c38:	0c9b      	lsrs	r3, r3, #18
 8000c3a:	220f      	movs	r2, #15
 8000c3c:	4013      	ands	r3, r2
 8000c3e:	3302      	adds	r3, #2
 8000c40:	4363      	muls	r3, r4
#endif /* RCC_PLLSRC_PREDIV1_SUPPORT */
}
 8000c42:	0018      	movs	r0, r3
 8000c44:	46bd      	mov	sp, r7
 8000c46:	b003      	add	sp, #12
 8000c48:	bd90      	pop	{r4, r7, pc}
 8000c4a:	46c0      	nop			@ (mov r8, r8)
 8000c4c:	003d0900 	.word	0x003d0900
 8000c50:	007a1200 	.word	0x007a1200

08000c54 <LL_USART_IsEnabled>:
{
 8000c54:	b580      	push	{r7, lr}
 8000c56:	b082      	sub	sp, #8
 8000c58:	af00      	add	r7, sp, #0
 8000c5a:	6078      	str	r0, [r7, #4]
  return ((READ_BIT(USARTx->CR1, USART_CR1_UE) == (USART_CR1_UE)) ? 1UL : 0UL);
 8000c5c:	687b      	ldr	r3, [r7, #4]
 8000c5e:	681b      	ldr	r3, [r3, #0]
 8000c60:	2201      	movs	r2, #1
 8000c62:	4013      	ands	r3, r2
 8000c64:	2b01      	cmp	r3, #1
 8000c66:	d101      	bne.n	8000c6c <LL_USART_IsEnabled+0x18>
 8000c68:	2301      	movs	r3, #1
 8000c6a:	e000      	b.n	8000c6e <LL_USART_IsEnabled+0x1a>
 8000c6c:	2300      	movs	r3, #0
}
 8000c6e:	0018      	movs	r0, r3
 8000c70:	46bd      	mov	sp, r7
 8000c72:	b002      	add	sp, #8
 8000c74:	bd80      	pop	{r7, pc}
	...

08000c78 <LL_USART_SetStopBitsLength>:
{
 8000c78:	b580      	push	{r7, lr}
 8000c7a:	b082      	sub	sp, #8
 8000c7c:	af00      	add	r7, sp, #0
 8000c7e:	6078      	str	r0, [r7, #4]
 8000c80:	6039      	str	r1, [r7, #0]
  MODIFY_REG(USARTx->CR2, USART_CR2_STOP, StopBits);
 8000c82:	687b      	ldr	r3, [r7, #4]
 8000c84:	685b      	ldr	r3, [r3, #4]
 8000c86:	4a05      	ldr	r2, [pc, #20]	@ (8000c9c <LL_USART_SetStopBitsLength+0x24>)
 8000c88:	401a      	ands	r2, r3
 8000c8a:	683b      	ldr	r3, [r7, #0]
 8000c8c:	431a      	orrs	r2, r3
 8000c8e:	687b      	ldr	r3, [r7, #4]
 8000c90:	605a      	str	r2, [r3, #4]
}
 8000c92:	46c0      	nop			@ (mov r8, r8)
 8000c94:	46bd      	mov	sp, r7
 8000c96:	b002      	add	sp, #8
 8000c98:	bd80      	pop	{r7, pc}
 8000c9a:	46c0      	nop			@ (mov r8, r8)
 8000c9c:	ffffcfff 	.word	0xffffcfff

08000ca0 <LL_USART_SetHWFlowCtrl>:
{
 8000ca0:	b580      	push	{r7, lr}
 8000ca2:	b082      	sub	sp, #8
 8000ca4:	af00      	add	r7, sp, #0
 8000ca6:	6078      	str	r0, [r7, #4]
 8000ca8:	6039      	str	r1, [r7, #0]
  MODIFY_REG(USARTx->CR3, USART_CR3_RTSE | USART_CR3_CTSE, HardwareFlowControl);
 8000caa:	687b      	ldr	r3, [r7, #4]
 8000cac:	689b      	ldr	r3, [r3, #8]
 8000cae:	4a05      	ldr	r2, [pc, #20]	@ (8000cc4 <LL_USART_SetHWFlowCtrl+0x24>)
 8000cb0:	401a      	ands	r2, r3
 8000cb2:	683b      	ldr	r3, [r7, #0]
 8000cb4:	431a      	orrs	r2, r3
 8000cb6:	687b      	ldr	r3, [r7, #4]
 8000cb8:	609a      	str	r2, [r3, #8]
}
 8000cba:	46c0      	nop			@ (mov r8, r8)
 8000cbc:	46bd      	mov	sp, r7
 8000cbe:	b002      	add	sp, #8
 8000cc0:	bd80      	pop	{r7, pc}
 8000cc2:	46c0      	nop			@ (mov r8, r8)
 8000cc4:	fffffcff 	.word	0xfffffcff

08000cc8 <LL_USART_SetBaudRate>:
{
 8000cc8:	b580      	push	{r7, lr}
 8000cca:	b086      	sub	sp, #24
 8000ccc:	af00      	add	r7, sp, #0
 8000cce:	60f8      	str	r0, [r7, #12]
 8000cd0:	60b9      	str	r1, [r7, #8]
 8000cd2:	607a      	str	r2, [r7, #4]
 8000cd4:	603b      	str	r3, [r7, #0]
  if (OverSampling == LL_USART_OVERSAMPLING_8)
 8000cd6:	687a      	ldr	r2, [r7, #4]
 8000cd8:	2380      	movs	r3, #128	@ 0x80
 8000cda:	021b      	lsls	r3, r3, #8
 8000cdc:	429a      	cmp	r2, r3
 8000cde:	d11c      	bne.n	8000d1a <LL_USART_SetBaudRate+0x52>
    usartdiv = (uint16_t)(__LL_USART_DIV_SAMPLING8(PeriphClk, BaudRate));
 8000ce0:	68bb      	ldr	r3, [r7, #8]
 8000ce2:	005a      	lsls	r2, r3, #1
 8000ce4:	683b      	ldr	r3, [r7, #0]
 8000ce6:	085b      	lsrs	r3, r3, #1
 8000ce8:	18d3      	adds	r3, r2, r3
 8000cea:	6839      	ldr	r1, [r7, #0]
 8000cec:	0018      	movs	r0, r3
 8000cee:	f7ff fa0b 	bl	8000108 <__udivsi3>
 8000cf2:	0003      	movs	r3, r0
 8000cf4:	b29b      	uxth	r3, r3
 8000cf6:	617b      	str	r3, [r7, #20]
    brrtemp = usartdiv & 0xFFF0U;
 8000cf8:	697b      	ldr	r3, [r7, #20]
 8000cfa:	4a10      	ldr	r2, [pc, #64]	@ (8000d3c <LL_USART_SetBaudRate+0x74>)
 8000cfc:	4013      	ands	r3, r2
 8000cfe:	613b      	str	r3, [r7, #16]
    brrtemp |= (uint16_t)((usartdiv & (uint16_t)0x000FU) >> 1U);
 8000d00:	697b      	ldr	r3, [r7, #20]
 8000d02:	085b      	lsrs	r3, r3, #1
 8000d04:	b29b      	uxth	r3, r3
 8000d06:	001a      	movs	r2, r3
 8000d08:	2307      	movs	r3, #7
 8000d0a:	4013      	ands	r3, r2
 8000d0c:	693a      	ldr	r2, [r7, #16]
 8000d0e:	4313      	orrs	r3, r2
 8000d10:	613b      	str	r3, [r7, #16]
    USARTx->BRR = brrtemp;
 8000d12:	68fb      	ldr	r3, [r7, #12]
 8000d14:	693a      	ldr	r2, [r7, #16]
 8000d16:	60da      	str	r2, [r3, #12]
}
 8000d18:	e00c      	b.n	8000d34 <LL_USART_SetBaudRate+0x6c>
    USARTx->BRR = (uint16_t)(__LL_USART_DIV_SAMPLING16(PeriphClk, BaudRate));
 8000d1a:	683b      	ldr	r3, [r7, #0]
 8000d1c:	085a      	lsrs	r2, r3, #1
 8000d1e:	68bb      	ldr	r3, [r7, #8]
 8000d20:	18d3      	adds	r3, r2, r3
 8000d22:	6839      	ldr	r1, [r7, #0]
 8000d24:	0018      	movs	r0, r3
 8000d26:	f7ff f9ef 	bl	8000108 <__udivsi3>
 8000d2a:	0003      	movs	r3, r0
 8000d2c:	b29b      	uxth	r3, r3
 8000d2e:	001a      	movs	r2, r3
 8000d30:	68fb      	ldr	r3, [r7, #12]
 8000d32:	60da      	str	r2, [r3, #12]
}
 8000d34:	46c0      	nop			@ (mov r8, r8)
 8000d36:	46bd      	mov	sp, r7
 8000d38:	b006      	add	sp, #24
 8000d3a:	bd80      	pop	{r7, pc}
 8000d3c:	0000fff0 	.word	0x0000fff0

08000d40 <LL_USART_Init>:
  * @retval An ErrorStatus enumeration value:
  *          - SUCCESS: USART registers are initialized according to USART_InitStruct content
  *          - ERROR: Problem occurred during USART Registers initialization
  */
ErrorStatus LL_USART_Init(USART_TypeDef *USARTx, const LL_USART_InitTypeDef *USART_InitStruct)
{
 8000d40:	b590      	push	{r4, r7, lr}
 8000d42:	b089      	sub	sp, #36	@ 0x24
 8000d44:	af00      	add	r7, sp, #0
 8000d46:	6078      	str	r0, [r7, #4]
 8000d48:	6039      	str	r1, [r7, #0]
  ErrorStatus status = ERROR;
 8000d4a:	231f      	movs	r3, #31
 8000d4c:	18fb      	adds	r3, r7, r3
 8000d4e:	2201      	movs	r2, #1
 8000d50:	701a      	strb	r2, [r3, #0]
  uint32_t periphclk = LL_RCC_PERIPH_FREQUENCY_NO;
 8000d52:	2300      	movs	r3, #0
 8000d54:	61bb      	str	r3, [r7, #24]
  assert_param(IS_LL_USART_HWCONTROL(USART_InitStruct->HardwareFlowControl));
  assert_param(IS_LL_USART_OVERSAMPLING(USART_InitStruct->OverSampling));

  /* USART needs to be in disabled state, in order to be able to configure some bits in
     CRx registers */
  if (LL_USART_IsEnabled(USARTx) == 0U)
 8000d56:	687b      	ldr	r3, [r7, #4]
 8000d58:	0018      	movs	r0, r3
 8000d5a:	f7ff ff7b 	bl	8000c54 <LL_USART_IsEnabled>
 8000d5e:	1e03      	subs	r3, r0, #0
 8000d60:	d148      	bne.n	8000df4 <LL_USART_Init+0xb4>
     * - DataWidth:          USART_CR1_M bits according to USART_InitStruct->DataWidth value
     * - Parity:             USART_CR1_PCE, USART_CR1_PS bits according to USART_InitStruct->Parity value
     * - TransferDirection:  USART_CR1_TE, USART_CR1_RE bits according to USART_InitStruct->TransferDirection value
     * - Oversampling:       USART_CR1_OVER8 bit according to USART_InitStruct->OverSampling value.
     */
    MODIFY_REG(USARTx->CR1,
 8000d62:	687b      	ldr	r3, [r7, #4]
 8000d64:	681b      	ldr	r3, [r3, #0]
 8000d66:	4a27      	ldr	r2, [pc, #156]	@ (8000e04 <LL_USART_Init+0xc4>)
 8000d68:	401a      	ands	r2, r3
 8000d6a:	683b      	ldr	r3, [r7, #0]
 8000d6c:	6859      	ldr	r1, [r3, #4]
 8000d6e:	683b      	ldr	r3, [r7, #0]
 8000d70:	68db      	ldr	r3, [r3, #12]
 8000d72:	4319      	orrs	r1, r3
 8000d74:	683b      	ldr	r3, [r7, #0]
 8000d76:	691b      	ldr	r3, [r3, #16]
 8000d78:	4319      	orrs	r1, r3
 8000d7a:	683b      	ldr	r3, [r7, #0]
 8000d7c:	699b      	ldr	r3, [r3, #24]
 8000d7e:	430b      	orrs	r3, r1
 8000d80:	431a      	orrs	r2, r3
 8000d82:	687b      	ldr	r3, [r7, #4]
 8000d84:	601a      	str	r2, [r3, #0]
    /*---------------------------- USART CR2 Configuration ---------------------
     * Configure USARTx CR2 (Stop bits) with parameters:
     * - Stop Bits:          USART_CR2_STOP bits according to USART_InitStruct->StopBits value.
     * - CLKEN, CPOL, CPHA and LBCL bits are to be configured using LL_USART_ClockInit().
     */
    LL_USART_SetStopBitsLength(USARTx, USART_InitStruct->StopBits);
 8000d86:	683b      	ldr	r3, [r7, #0]
 8000d88:	689a      	ldr	r2, [r3, #8]
 8000d8a:	687b      	ldr	r3, [r7, #4]
 8000d8c:	0011      	movs	r1, r2
 8000d8e:	0018      	movs	r0, r3
 8000d90:	f7ff ff72 	bl	8000c78 <LL_USART_SetStopBitsLength>
    /*---------------------------- USART CR3 Configuration ---------------------
     * Configure USARTx CR3 (Hardware Flow Control) with parameters:
     * - HardwareFlowControl: USART_CR3_RTSE, USART_CR3_CTSE bits according to
     *   USART_InitStruct->HardwareFlowControl value.
     */
    LL_USART_SetHWFlowCtrl(USARTx, USART_InitStruct->HardwareFlowControl);
 8000d94:	683b      	ldr	r3, [r7, #0]
 8000d96:	695a      	ldr	r2, [r3, #20]
 8000d98:	687b      	ldr	r3, [r7, #4]
 8000d9a:	0011      	movs	r1, r2
 8000d9c:	0018      	movs	r0, r3
 8000d9e:	f7ff ff7f 	bl	8000ca0 <LL_USART_SetHWFlowCtrl>

    /*---------------------------- USART BRR Configuration ---------------------
     * Retrieve Clock frequency used for USART Peripheral
     */
    if (USARTx == USART1)
 8000da2:	687b      	ldr	r3, [r7, #4]
 8000da4:	4a18      	ldr	r2, [pc, #96]	@ (8000e08 <LL_USART_Init+0xc8>)
 8000da6:	4293      	cmp	r3, r2
 8000da8:	d105      	bne.n	8000db6 <LL_USART_Init+0x76>
    {
      periphclk = LL_RCC_GetUSARTClockFreq(LL_RCC_USART1_CLKSOURCE);
 8000daa:	2000      	movs	r0, #0
 8000dac:	f7ff fe88 	bl	8000ac0 <LL_RCC_GetUSARTClockFreq>
 8000db0:	0003      	movs	r3, r0
 8000db2:	61bb      	str	r3, [r7, #24]
 8000db4:	e00b      	b.n	8000dce <LL_USART_Init+0x8e>
    }
#if defined(USART2)
    else if (USARTx == USART2)
 8000db6:	687b      	ldr	r3, [r7, #4]
 8000db8:	4a14      	ldr	r2, [pc, #80]	@ (8000e0c <LL_USART_Init+0xcc>)
 8000dba:	4293      	cmp	r3, r2
 8000dbc:	d107      	bne.n	8000dce <LL_USART_Init+0x8e>
    {
#if defined(RCC_CFGR3_USART2SW)
      periphclk = LL_RCC_GetUSARTClockFreq(LL_RCC_USART2_CLKSOURCE);
#else
      /* USART2 clock is PCLK */
      LL_RCC_GetSystemClocksFreq(&RCC_Clocks);
 8000dbe:	240c      	movs	r4, #12
 8000dc0:	193b      	adds	r3, r7, r4
 8000dc2:	0018      	movs	r0, r3
 8000dc4:	f7ff fe5e 	bl	8000a84 <LL_RCC_GetSystemClocksFreq>
      periphclk = RCC_Clocks.PCLK1_Frequency;
 8000dc8:	193b      	adds	r3, r7, r4
 8000dca:	689b      	ldr	r3, [r3, #8]
 8000dcc:	61bb      	str	r3, [r7, #24]

    /* Configure the USART Baud Rate :
       - valid baud rate value (different from 0) is required
       - Peripheral clock as returned by RCC service, should be valid (different from 0).
    */
    if ((periphclk != LL_RCC_PERIPH_FREQUENCY_NO)
 8000dce:	69bb      	ldr	r3, [r7, #24]
 8000dd0:	2b00      	cmp	r3, #0
 8000dd2:	d00f      	beq.n	8000df4 <LL_USART_Init+0xb4>
        && (USART_InitStruct->BaudRate != 0U))
 8000dd4:	683b      	ldr	r3, [r7, #0]
 8000dd6:	681b      	ldr	r3, [r3, #0]
 8000dd8:	2b00      	cmp	r3, #0
 8000dda:	d00b      	beq.n	8000df4 <LL_USART_Init+0xb4>
    {
      status = SUCCESS;
 8000ddc:	231f      	movs	r3, #31
 8000dde:	18fb      	adds	r3, r7, r3
 8000de0:	2200      	movs	r2, #0
 8000de2:	701a      	strb	r2, [r3, #0]
      LL_USART_SetBaudRate(USARTx,
                           periphclk,
                           USART_InitStruct->OverSampling,
 8000de4:	683b      	ldr	r3, [r7, #0]
 8000de6:	699a      	ldr	r2, [r3, #24]
                           USART_InitStruct->BaudRate);
 8000de8:	683b      	ldr	r3, [r7, #0]
 8000dea:	681b      	ldr	r3, [r3, #0]
      LL_USART_SetBaudRate(USARTx,
 8000dec:	69b9      	ldr	r1, [r7, #24]
 8000dee:	6878      	ldr	r0, [r7, #4]
 8000df0:	f7ff ff6a 	bl	8000cc8 <LL_USART_SetBaudRate>
      assert_param(IS_LL_USART_BRR_MIN(USARTx->BRR));
    }
  }
  /* Endif (=> USART not in Disabled state => return ERROR) */

  return (status);
 8000df4:	231f      	movs	r3, #31
 8000df6:	18fb      	adds	r3, r7, r3
 8000df8:	781b      	ldrb	r3, [r3, #0]
}
 8000dfa:	0018      	movs	r0, r3
 8000dfc:	46bd      	mov	sp, r7
 8000dfe:	b009      	add	sp, #36	@ 0x24
 8000e00:	bd90      	pop	{r4, r7, pc}
 8000e02:	46c0      	nop			@ (mov r8, r8)
 8000e04:	ffff69f3 	.word	0xffff69f3
 8000e08:	40013800 	.word	0x40013800
 8000e0c:	40004400 	.word	0x40004400

08000e10 <LL_InitTick>:
  *         configuration by calling this function, for a delay use rather osDelay RTOS service.
  * @param  Ticks Frequency of Ticks (Hz)
  * @retval None
  */
__STATIC_INLINE void LL_InitTick(uint32_t HCLKFrequency, uint32_t Ticks)
{
 8000e10:	b580      	push	{r7, lr}
 8000e12:	b082      	sub	sp, #8
 8000e14:	af00      	add	r7, sp, #0
 8000e16:	6078      	str	r0, [r7, #4]
 8000e18:	6039      	str	r1, [r7, #0]
  /* Configure the SysTick to have interrupt in 1ms time base */
  SysTick->LOAD  = (uint32_t)((HCLKFrequency / Ticks) - 1UL);  /* set reload register */
 8000e1a:	6839      	ldr	r1, [r7, #0]
 8000e1c:	6878      	ldr	r0, [r7, #4]
 8000e1e:	f7ff f973 	bl	8000108 <__udivsi3>
 8000e22:	0003      	movs	r3, r0
 8000e24:	001a      	movs	r2, r3
 8000e26:	4b06      	ldr	r3, [pc, #24]	@ (8000e40 <LL_InitTick+0x30>)
 8000e28:	3a01      	subs	r2, #1
 8000e2a:	605a      	str	r2, [r3, #4]
  SysTick->VAL   = 0UL;                                       /* Load the SysTick Counter Value */
 8000e2c:	4b04      	ldr	r3, [pc, #16]	@ (8000e40 <LL_InitTick+0x30>)
 8000e2e:	2200      	movs	r2, #0
 8000e30:	609a      	str	r2, [r3, #8]
  SysTick->CTRL  = SysTick_CTRL_CLKSOURCE_Msk |
 8000e32:	4b03      	ldr	r3, [pc, #12]	@ (8000e40 <LL_InitTick+0x30>)
 8000e34:	2205      	movs	r2, #5
 8000e36:	601a      	str	r2, [r3, #0]
                   SysTick_CTRL_ENABLE_Msk;                   /* Enable the Systick Timer */
}
 8000e38:	46c0      	nop			@ (mov r8, r8)
 8000e3a:	46bd      	mov	sp, r7
 8000e3c:	b002      	add	sp, #8
 8000e3e:	bd80      	pop	{r7, pc}
 8000e40:	e000e010 	.word	0xe000e010

08000e44 <LL_Init1msTick>:
  * @param  HCLKFrequency HCLK frequency in Hz
  * @note   HCLK frequency can be calculated thanks to RCC helper macro or function @ref LL_RCC_GetSystemClocksFreq
  * @retval None
  */
void LL_Init1msTick(uint32_t HCLKFrequency)
{
 8000e44:	b580      	push	{r7, lr}
 8000e46:	b082      	sub	sp, #8
 8000e48:	af00      	add	r7, sp, #0
 8000e4a:	6078      	str	r0, [r7, #4]
  /* Use frequency provided in argument */
  LL_InitTick(HCLKFrequency, 1000U);
 8000e4c:	23fa      	movs	r3, #250	@ 0xfa
 8000e4e:	009a      	lsls	r2, r3, #2
 8000e50:	687b      	ldr	r3, [r7, #4]
 8000e52:	0011      	movs	r1, r2
 8000e54:	0018      	movs	r0, r3
 8000e56:	f7ff ffdb 	bl	8000e10 <LL_InitTick>
}
 8000e5a:	46c0      	nop			@ (mov r8, r8)
 8000e5c:	46bd      	mov	sp, r7
 8000e5e:	b002      	add	sp, #8
 8000e60:	bd80      	pop	{r7, pc}
	...

08000e64 <LL_mDelay>:
  *         will configure Systick to 1ms
  * @param  Delay specifies the delay time length, in milliseconds.
  * @retval None
  */
void LL_mDelay(uint32_t Delay)
{
 8000e64:	b580      	push	{r7, lr}
 8000e66:	b084      	sub	sp, #16
 8000e68:	af00      	add	r7, sp, #0
 8000e6a:	6078      	str	r0, [r7, #4]
  __IO uint32_t  tmp = SysTick->CTRL;  /* Clear the COUNTFLAG first */
 8000e6c:	4b0d      	ldr	r3, [pc, #52]	@ (8000ea4 <LL_mDelay+0x40>)
 8000e6e:	681b      	ldr	r3, [r3, #0]
 8000e70:	60fb      	str	r3, [r7, #12]
  /* Add this code to indicate that local variable is not used */
  ((void)tmp);
 8000e72:	68fb      	ldr	r3, [r7, #12]

  /* Add a period to guaranty minimum wait */
  if (Delay < LL_MAX_DELAY)
 8000e74:	687b      	ldr	r3, [r7, #4]
 8000e76:	3301      	adds	r3, #1
 8000e78:	d00c      	beq.n	8000e94 <LL_mDelay+0x30>
  {
    Delay++;
 8000e7a:	687b      	ldr	r3, [r7, #4]
 8000e7c:	3301      	adds	r3, #1
 8000e7e:	607b      	str	r3, [r7, #4]
 8000e80:	e008      	b.n	8000e94 <LL_mDelay+0x30>
  }

  while (Delay)
  {
    if ((SysTick->CTRL & SysTick_CTRL_COUNTFLAG_Msk) != 0U)
 8000e82:	4b08      	ldr	r3, [pc, #32]	@ (8000ea4 <LL_mDelay+0x40>)
 8000e84:	681a      	ldr	r2, [r3, #0]
 8000e86:	2380      	movs	r3, #128	@ 0x80
 8000e88:	025b      	lsls	r3, r3, #9
 8000e8a:	4013      	ands	r3, r2
 8000e8c:	d002      	beq.n	8000e94 <LL_mDelay+0x30>
    {
      Delay--;
 8000e8e:	687b      	ldr	r3, [r7, #4]
 8000e90:	3b01      	subs	r3, #1
 8000e92:	607b      	str	r3, [r7, #4]
  while (Delay)
 8000e94:	687b      	ldr	r3, [r7, #4]
 8000e96:	2b00      	cmp	r3, #0
 8000e98:	d1f3      	bne.n	8000e82 <LL_mDelay+0x1e>
    }
  }
}
 8000e9a:	46c0      	nop			@ (mov r8, r8)
 8000e9c:	46c0      	nop			@ (mov r8, r8)
 8000e9e:	46bd      	mov	sp, r7
 8000ea0:	b004      	add	sp, #16
 8000ea2:	bd80      	pop	{r7, pc}
 8000ea4:	e000e010 	.word	0xe000e010

08000ea8 <LL_SetSystemCoreClock>:
  * @note   Variable can be calculated also through SystemCoreClockUpdate function.
  * @param  HCLKFrequency HCLK frequency in Hz (can be calculated thanks to RCC helper macro)
  * @retval None
  */
void LL_SetSystemCoreClock(uint32_t HCLKFrequency)
{
 8000ea8:	b580      	push	{r7, lr}
 8000eaa:	b082      	sub	sp, #8
 8000eac:	af00      	add	r7, sp, #0
 8000eae:	6078      	str	r0, [r7, #4]
  /* HCLK clock frequency */
  SystemCoreClock = HCLKFrequency;
 8000eb0:	4b03      	ldr	r3, [pc, #12]	@ (8000ec0 <LL_SetSystemCoreClock+0x18>)
 8000eb2:	687a      	ldr	r2, [r7, #4]
 8000eb4:	601a      	str	r2, [r3, #0]
}
 8000eb6:	46c0      	nop			@ (mov r8, r8)
 8000eb8:	46bd      	mov	sp, r7
 8000eba:	b002      	add	sp, #8
 8000ebc:	bd80      	pop	{r7, pc}
 8000ebe:	46c0      	nop			@ (mov r8, r8)
 8000ec0:	20000000 	.word	0x20000000

08000ec4 <memset>:
 8000ec4:	0003      	movs	r3, r0
 8000ec6:	1882      	adds	r2, r0, r2
 8000ec8:	4293      	cmp	r3, r2
 8000eca:	d100      	bne.n	8000ece <memset+0xa>
 8000ecc:	4770      	bx	lr
 8000ece:	7019      	strb	r1, [r3, #0]
 8000ed0:	3301      	adds	r3, #1
 8000ed2:	e7f9      	b.n	8000ec8 <memset+0x4>

08000ed4 <__libc_init_array>:
 8000ed4:	b570      	push	{r4, r5, r6, lr}
 8000ed6:	2600      	movs	r6, #0
 8000ed8:	4c0c      	ldr	r4, [pc, #48]	@ (8000f0c <__libc_init_array+0x38>)
 8000eda:	4d0d      	ldr	r5, [pc, #52]	@ (8000f10 <__libc_init_array+0x3c>)
 8000edc:	1b64      	subs	r4, r4, r5
 8000ede:	10a4      	asrs	r4, r4, #2
 8000ee0:	42a6      	cmp	r6, r4
 8000ee2:	d109      	bne.n	8000ef8 <__libc_init_array+0x24>
 8000ee4:	2600      	movs	r6, #0
 8000ee6:	f000 f819 	bl	8000f1c <_init>
 8000eea:	4c0a      	ldr	r4, [pc, #40]	@ (8000f14 <__libc_init_array+0x40>)
 8000eec:	4d0a      	ldr	r5, [pc, #40]	@ (8000f18 <__libc_init_array+0x44>)
 8000eee:	1b64      	subs	r4, r4, r5
 8000ef0:	10a4      	asrs	r4, r4, #2
 8000ef2:	42a6      	cmp	r6, r4
 8000ef4:	d105      	bne.n	8000f02 <__libc_init_array+0x2e>
 8000ef6:	bd70      	pop	{r4, r5, r6, pc}
 8000ef8:	00b3      	lsls	r3, r6, #2
 8000efa:	58eb      	ldr	r3, [r5, r3]
 8000efc:	4798      	blx	r3
 8000efe:	3601      	adds	r6, #1
 8000f00:	e7ee      	b.n	8000ee0 <__libc_init_array+0xc>
 8000f02:	00b3      	lsls	r3, r6, #2
 8000f04:	58eb      	ldr	r3, [r5, r3]
 8000f06:	4798      	blx	r3
 8000f08:	3601      	adds	r6, #1
 8000f0a:	e7f2      	b.n	8000ef2 <__libc_init_array+0x1e>
 8000f0c:	08000f4c 	.word	0x08000f4c
 8000f10:	08000f4c 	.word	0x08000f4c
 8000f14:	08000f50 	.word	0x08000f50
 8000f18:	08000f4c 	.word	0x08000f4c

08000f1c <_init>:
 8000f1c:	b5f8      	push	{r3, r4, r5, r6, r7, lr}
 8000f1e:	46c0      	nop			@ (mov r8, r8)
 8000f20:	bcf8      	pop	{r3, r4, r5, r6, r7}
 8000f22:	bc08      	pop	{r3}
 8000f24:	469e      	mov	lr, r3
 8000f26:	4770      	bx	lr

08000f28 <_fini>:
 8000f28:	b5f8      	push	{r3, r4, r5, r6, r7, lr}
 8000f2a:	46c0      	nop			@ (mov r8, r8)
 8000f2c:	bcf8      	pop	{r3, r4, r5, r6, r7}
 8000f2e:	bc08      	pop	{r3}
 8000f30:	469e      	mov	lr, r3
 8000f32:	4770      	bx	lr
